*** EVALUATION ***
ANSI-C/cC++ Compiler for HC12 V-5.0.41 Build 10203, Jul 23 2010

    1:  // ----------------------------------------
    2:  // Filename: main.c
    3:  // Description: 
    4:  //   This file contains the high-level code for the DEM project.
    5:  //   It initialises appropriate hardware subsystems,
    6:  //   creates application threads, and then starts the OS.
    7:  //
    8:  // Author: Danny Sok
    9:  // Date: 3-11-2011
   10:  // Date LM: 3-11-2011
   11:  
   12:  // Constants and dependencies
   13:  #include "main.h"
   14:  
   15:  static UINT16 SampleCount;
   16:  
   17:  // ----------------------------------------
   18:  // main
   19:  //
   20:  // Initializes the various peripherals
   21:  // Handles received packets endlessly
   22:  // Input: none
   23:  // Output: none
   24:  // Conditions: none
   25:  //
   26:  
   27:  void main(void)
   28:  {
*** EVALUATION ***

Function: main
Source  : F:\Dropbox\S11\Embedded Software\Assignments\demdanruto\Project\Sources\main.c
Options : -CPUHCS12 -D__NO_FLOAT__ -Env"GENPATH=F:\Dropbox\S11\Embedded Software\Assignments\demdanruto\Project;F:\Dropbox\S11\Embedded Software\Assignments\demdanruto\Project\bin;F:\Dropbox\S11\Embedded Software\Assignments\demdanruto\Project\prm;F:\Dropbox\S11\Embedded Software\Assignments\demdanruto\Project\cmd;F:\Dropbox\S11\Embedded Software\Assignments\demdanruto\Project\Sources;C:\Program Files (x86)\Freescale\CWS12v5.1\lib\HC12c\lib;C:\Program Files (x86)\Freescale\CWS12v5.1\lib\HC12c\src;F:\Dropbox\S11\Embedded Software\Assignments\demdanruto\Project\lib;C:\Program Files (x86)\Freescale\CWS12v5.1\lib\HC12c\include" -Env"LIBPATH=C:\Program Files (x86)\Freescale\CWS12v5.1\lib\HC12c\include" -Env"OBJPATH=F:\Dropbox\S11\Embedded Software\Assignments\demdanruto\Project\bin" -Env"TEXTPATH=F:\Dropbox\S11\Embedded Software\Assignments\demdanruto\Project\bin" -Lasm=%n.lst -Ms -ObjN="F:\Dropbox\S11\Embedded Software\Assignments\demdanruto\Project\Project_Data\Full_Chip_Simulation\ObjectCode\main.c.o" -WmsgSd1106 -WmsgSd5703

  0000 1b92         [2]     LEAS  -14,SP
   29:    // Setup Routines.
   30:    BOOL bSetupState;
   31:    TTimerSetup timerSetup;
   32:    
   33:    
   34:    bSetupState = Packet_Setup(baudRate, busClk) &&
  0002 86c2         [1]     LDAA  #194
  0004 c7           [1]     CLRB  
  0005 3b           [2]     PSHD  
  0006 cd0001       [2]     LDY   #1
  0009 35           [2]     PSHY  
  000a 8636         [1]     LDAA  #54
  000c ce016e       [2]     LDX   #366
  000f 160000       [4]     JSR   Packet_Setup
  0012 1b84         [2]     LEAS  4,SP
  0014 04443b       [3]     TBEQ  D,*+62 ;abs = 0052
   35:                  EEPROM_Setup(oscClk, busClk) &&
  0017 8624         [1]     LDAA  #36
  0019 c7           [1]     CLRB  
  001a 3b           [2]     PSHD  
  001b ce00f4       [2]     LDX   #244
  001e 34           [2]     PSHX  
  001f 8636         [1]     LDAA  #54
  0021 ce016e       [2]     LDX   #366
  0024 160000       [4]     JSR   EEPROM_Setup
  0027 1b84         [2]     LEAS  4,SP
  0029 044426       [3]     TBEQ  D,*+41 ;abs = 0052
   36:                  CRG_SetupPLL(busClk, oscClk, refClk) &&
  002c 8636         [1]     LDAA  #54
  002e c7           [1]     CLRB  
  002f 3b           [2]     PSHD  
  0030 ce016e       [2]     LDX   #366
  0033 34           [2]     PSHX  
  0034 cd2400       [2]     LDY   #9216
  0037 35           [2]     PSHY  
  0038 c6f4         [1]     LDAB  #244
  003a 87           [1]     CLRA  
  003b 3b           [2]     PSHD  
  003c 8612         [1]     LDAA  #18
  003e c7           [1]     CLRB  
  003f ce007a       [2]     LDX   #122
  0042 160000       [4]     JSR   CRG_SetupPLL
  0045 1b88         [2]     LEAS  8,SP
  0047 044408       [3]     TBEQ  D,*+11 ;abs = 0052
   37:                  CRG_SetupCOP(watchDogRate);
  004a c601         [1]     LDAB  #1
  004c 160000       [4]     JSR   CRG_SetupCOP
  004f 046405       [3]     TBNE  D,*+8 ;abs = 0057
  0052 cd0000       [2]     LDY   #0
  0055 2003         [3]     BRA   *+5 ;abs = 005a
  0057 cd0001       [2]     LDY   #1
  005a 6d8c         [2]     STY   12,SP
   38:                  
   39:                  
   40:  
   41:    timerSetup.outputCompare = bTRUE;
  005c c601         [1]     LDAB  #1
  005e 87           [1]     CLRA  
  005f 6c80         [2]     STD   0,SP
   42:    timerSetup.outputAction = TIMER_OUTPUT_DISCONNECT;      
  0061 6983         [2]     CLR   3,SP
  0063 6982         [2]     CLR   2,SP
   43:    timerSetup.inputDetection = TIMER_INPUT_OFF;
  0065 6985         [2]     CLR   5,SP
  0067 6984         [2]     CLR   4,SP
   44:    timerSetup.toggleOnOverflow = bFALSE;
  0069 6987         [2]     CLR   7,SP
  006b 6986         [2]     CLR   6,SP
   45:    timerSetup.interruptEnable = bTRUE;
  006d 6c88         [2]     STD   8,SP
   46:                  
   47:    Clock_Setup(prescaleRate, modulusCount);
  006f c607         [1]     LDAB  #7
  0071 37           [2]     PSHB  
  0072 c60f         [1]     LDAB  #15
  0074 160000       [4]     JSR   Clock_Setup
  0077 32           [3]     PULA  
   48:    Analog_Setup(busClk);
  0078 8636         [1]     LDAA  #54
  007a c7           [1]     CLRB  
  007b ce016e       [2]     LDX   #366
  007e 160000       [4]     JSR   Analog_Setup
   49:    PWM_Setup(busClk);
  0081 8636         [1]     LDAA  #54
  0083 c7           [1]     CLRB  
  0084 ce016e       [2]     LDX   #366
  0087 160000       [4]     JSR   PWM_Setup
   50:    
   51:    Timer_Setup();
  008a 160000       [4]     JSR   Timer_Setup
   52:    Timer_PeriodicTimerEnable(bTRUE);
  008d c601         [1]     LDAB  #1
  008f 87           [1]     CLRA  
  0090 160000       [4]     JSR   Timer_PeriodicTimerEnable
   53:    Timer_SetupPeriodicTimer(Periodic_Delay, busClk);
  0093 cc4e20       [2]     LDD   #20000
  0096 3b           [2]     PSHD  
  0097 8636         [1]     LDAA  #54
  0099 c7           [1]     CLRB  
  009a ce016e       [2]     LDX   #366
  009d 160000       [4]     JSR   Timer_SetupPeriodicTimer
  00a0 3a           [3]     PULD  
   54:    
   55:    Timer_SetupPulseAccumulators();
  00a1 160000       [4]     JSR   Timer_SetupPulseAccumulators
   56:    Timer_Init(TIMER_Ch7, &timerSetup);
  00a4 c607         [1]     LDAB  #7
  00a6 87           [1]     CLRA  
  00a7 3b           [2]     PSHD  
  00a8 1a82         [2]     LEAX  2,SP
  00aa b7c5         [1]     EXG   D,X
  00ac 160000       [4]     JSR   Timer_Init
   57:    Timer_Set(TIMER_Ch7, Timer_Ch7_Delay);
  00af c607         [1]     LDAB  #7
  00b1 87           [1]     CLRA  
  00b2 6c80         [2]     STD   0,SP
  00b4 cc07d0       [2]     LDD   #2000
  00b7 160000       [4]     JSR   Timer_Set
  00ba 3a           [3]     PULD  
   58:    HMI_Setup();
  00bb 160000       [4]     JSR   HMI_Setup
   59:    
   60:    if (bSetupState)
  00be ec8c         [3]     LDD   12,SP
  00c0 2706         [3/1]   BEQ   *+8 ;abs = 00c8
   61:    {
   62:      // Turn on LED D11 to show success.
   63:      DDRE_BIT7   = 1;
  00c2 4c0080       [4]     BSET  _DDRE,#128
   64:      PORTE_BIT7  = 0;
  00c5 4d0080       [4]     BCLR  _PORTE,#128
   65:    }
   66:    
   67:    EnableInterrupts;
  00c8 10ef         [1]     CLI   
   68:    (void)HandleStartupPacket();
  00ca 160000       [4]     JSR   HandleStartupPacket
   69:    
   70:    SampleCount = 0;
  00cd c7           [1]     CLRB  
  00ce 87           [1]     CLRA  
  00cf 7c0000       [3]     STD   SampleCount
   71:    
   72:    // Main loop
   73:    for (;;)
   74:    {
   75:      ARMCOP = copReset;
  00d2 c655         [1]     LDAB  #85
  00d4 5b00         [2]     STAB  _ARMCOP
   76:      
   77:      if ( Packet_Get() )
  00d6 160000       [4]     JSR   Packet_Get
  00d9 044403       [3]     TBEQ  D,*+6 ;abs = 00df
   78:        HandlePacket();
  00dc 160000       [4]     JSR   HandlePacket
   79:      
   80:      // Determine if a second has passed. If it has then send a time packet  
   81:      if ( Clock_Update() )
  00df 160000       [4]     JSR   Clock_Update
  00e2 044406       [3]     TBEQ  D,*+9 ;abs = 00eb
   82:      {
   83:        //Analog_Put(Ch1);
   84:        (void)HandleTimePacket();
  00e5 160000       [4]     JSR   HandleTimePacket
   85:        HMI_Update();
  00e8 160000       [4]     JSR   HMI_Update
   86:      }
   87:      
   88:      
   89:    
   90:      ARMCOP = copEnd;
  00eb c6aa         [1]     LDAB  #170
  00ed 5b00         [2]     STAB  _ARMCOP
  00ef 20e1         [3]     BRA   *-29 ;abs = 00d2
   91:    }
   92:  }
   93:  
   94:  //---------------------------------
   95:  //  HandlePacket
   96:  //
   97:  //  Determines what packet is recieved, then replies with the
   98:  //  coresponding answer
   99:  //  Input: none
  100:  //  Output: none
  101:  //  Conditions: none
  102:  void HandlePacket(void)
  103:  {
*** EVALUATION ***

Function: HandlePacket
Source  : F:\Dropbox\S11\Embedded Software\Assignments\demdanruto\Project\Sources\main.c
Options : -CPUHCS12 -D__NO_FLOAT__ -Env"GENPATH=F:\Dropbox\S11\Embedded Software\Assignments\demdanruto\Project;F:\Dropbox\S11\Embedded Software\Assignments\demdanruto\Project\bin;F:\Dropbox\S11\Embedded Software\Assignments\demdanruto\Project\prm;F:\Dropbox\S11\Embedded Software\Assignments\demdanruto\Project\cmd;F:\Dropbox\S11\Embedded Software\Assignments\demdanruto\Project\Sources;C:\Program Files (x86)\Freescale\CWS12v5.1\lib\HC12c\lib;C:\Program Files (x86)\Freescale\CWS12v5.1\lib\HC12c\src;F:\Dropbox\S11\Embedded Software\Assignments\demdanruto\Project\lib;C:\Program Files (x86)\Freescale\CWS12v5.1\lib\HC12c\include" -Env"LIBPATH=C:\Program Files (x86)\Freescale\CWS12v5.1\lib\HC12c\include" -Env"OBJPATH=F:\Dropbox\S11\Embedded Software\Assignments\demdanruto\Project\bin" -Env"TEXTPATH=F:\Dropbox\S11\Embedded Software\Assignments\demdanruto\Project\bin" -Lasm=%n.lst -Ms -ObjN="F:\Dropbox\S11\Embedded Software\Assignments\demdanruto\Project\Project_Data\Full_Chip_Simulation\ObjectCode\main.c.o" -WmsgSd1106 -WmsgSd5703

  104:    BOOL bACK = bFALSE;
  0000 c7           [1]     CLRB  
  0001 87           [1]     CLRA  
  0002 3b           [2]     PSHD  
  105:  
  106:    if (Packet_Command >= 0x80) // 128 in hex
  0003 f60000       [3]     LDAB  Packet
  0006 c180         [1]     CMPB  #128
  0008 250c         [3/1]   BCS   *+14 ;abs = 0016
  107:    {
  108:      bACK = bTRUE;
  000a c601         [1]     LDAB  #1
  000c 6c80         [2]     STD   0,SP
  109:      Packet_Command -= 0x80;  
  000e f60000       [3]     LDAB  Packet
  0011 c080         [1]     SUBB  #128
  0013 7b0000       [3]     STAB  Packet
  110:    }
  111:    
  112:    switch (Packet_Command)
  0016 f60000       [3]     LDAB  Packet
  0019 c11a         [1]     CMPB  #26
  001b 2277         [3/1]   BHI   *+121 ;abs = 0094
  001d c004         [1]     SUBB  #4
  001f 160000       [4]     JSR   _CASE_CHECKED_BYTE
  0022 17           DC.B  23
  0023 70           DC.B  112
  0024 17           DC.B  23
  0025 70           DC.B  112
  0026 70           DC.B  112
  0027 2b           DC.B  43
  0028 30           DC.B  48
  0029 1c           DC.B  28
  002a 35           DC.B  53
  002b 21           DC.B  33
  002c 70           DC.B  112
  002d 26           DC.B  38
  002e 70           DC.B  112
  002f 70           DC.B  112
  0030 3a           DC.B  58
  0031 3f           DC.B  63
  0032 44           DC.B  68
  0033 49           DC.B  73
  0034 4e           DC.B  78
  0035 53           DC.B  83
  0036 58           DC.B  88
  0037 5d           DC.B  93
  0038 62           DC.B  98
  0039 67           DC.B  103
  003a 6c           DC.B  108
  113:    {
  114:      case CMD_STARTUP:
  115:           Packet_CommandOK = HandleStartupPacket();
  003b 160000       [4]     JSR   HandleStartupPacket
  116:      break;
  003e 2056         [3]     BRA   *+88 ;abs = 0096
  117:      case CMD_SPECIAL:
  118:           Packet_CommandOK = HandleSpecialPacket();
  0040 160000       [4]     JSR   HandleSpecialPacket
  119:      break;
  0043 2051         [3]     BRA   *+83 ;abs = 0096
  120:      case CMD_MODCON_NB:
  121:           Packet_CommandOK = HandleNumberPacket();
  0045 160000       [4]     JSR   HandleNumberPacket
  122:      break;
  0048 204c         [3]     BRA   *+78 ;abs = 0096
  123:      case CMD_MODCON_MODE:
  124:           Packet_CommandOK = HandleModePacket();
  004a 160000       [4]     JSR   HandleModePacket
  125:      break;
  004d 2047         [3]     BRA   *+73 ;abs = 0096
  126:      case CMD_EEPROM_PROG:
  127:           Packet_CommandOK = HandleEEPROMProgramPacket();
  004f 160000       [4]     JSR   HandleEEPROMProgramPacket
  128:      break;
  0052 2042         [3]     BRA   *+68 ;abs = 0096
  129:      case CMD_EEPROM_GET:
  130:           Packet_CommandOK = HandleEEPROMGetPacket();
  0054 160000       [4]     JSR   HandleEEPROMGetPacket
  131:      break;
  0057 203d         [3]     BRA   *+63 ;abs = 0096
  132:      case CMD_MODCON_PMODE:
  133:           Packet_CommandOK = HandlePacketModePacket();
  0059 160000       [4]     JSR   HandlePacketModePacket
  134:      break;
  005c 2038         [3]     BRA   *+58 ;abs = 0096
  135:      case CMD_TEST_MODE:
  136:           HandleTestModePack();
  005e 160000       [4]     JSR   HandleTestModePack
  137:      break;
  0061 2036         [3]     BRA   *+56 ;abs = 0099
  138:      case CMD_TARRIF:
  139:           HandleTarrifPacket();
  0063 160000       [4]     JSR   HandleTarrifPacket
  140:      break;
  0066 2031         [3]     BRA   *+51 ;abs = 0099
  141:      case CMD_TIME1:
  142:           Packet_CommandOK = HandleTime1Packet();
  0068 160000       [4]     JSR   HandleTime1Packet
  143:      break;
  006b 2029         [3]     BRA   *+43 ;abs = 0096
  144:      case CMD_TIME2:
  145:           Packet_CommandOK = HandleTime2Packet();
  006d 160000       [4]     JSR   HandleTime2Packet
  146:      break;
  0070 2024         [3]     BRA   *+38 ;abs = 0096
  147:      case CMD_POWER:
  148:           Packet_CommandOK = HandlePowerPacket();
  0072 160000       [4]     JSR   HandlePowerPacket
  149:      break;
  0075 201f         [3]     BRA   *+33 ;abs = 0096
  150:      case CMD_ENERGY:
  151:           Packet_CommandOK = HandleEnergyPacket();
  0077 160000       [4]     JSR   HandleEnergyPacket
  152:      break;
  007a 201a         [3]     BRA   *+28 ;abs = 0096
  153:      case CMD_COST:
  154:           Packet_CommandOK = HandleCostPacket();
  007c 160000       [4]     JSR   HandleCostPacket
  155:      break;
  007f 2015         [3]     BRA   *+23 ;abs = 0096
  156:      case CMD_FREQUENCY:
  157:           Packet_CommandOK = HandleFrquencyPacket();
  0081 160000       [4]     JSR   HandleFrquencyPacket
  158:      break;
  0084 2010         [3]     BRA   *+18 ;abs = 0096
  159:      case CMD_VOLRMS:
  160:           Packet_CommandOK = HandleVRMS();
  0086 160000       [4]     JSR   HandleVRMS
  161:      break;
  0089 200b         [3]     BRA   *+13 ;abs = 0096
  162:      case CMD_CURRMS:
  163:           Packet_CommandOK = HandleIRMS();
  008b 160000       [4]     JSR   HandleIRMS
  164:      break;
  008e 2006         [3]     BRA   *+8 ;abs = 0096
  165:      case CMD_POWFAC:
  166:           Packet_CommandOK = HandlePFactor();
  0090 160000       [4]     JSR   HandlePFactor
  167:      break;
  0093 8f           [2]     SKIP2 
  168:      
  169:      default:
  170:           Packet_CommandOK = bFALSE;
  0094 c7           [1]     CLRB  
  0095 87           [1]     CLRA  
  0096 7c0000       [3]     STD   Packet_CommandOK
  171:      break;
  172:    }
  173:           
  174:    if (bACK && Packet_CommandOK)
  0099 ec80         [3]     LDD   0,SP
  009b 270f         [3/1]   BEQ   *+17 ;abs = 00ac
  009d fc0000       [3]     LDD   Packet_CommandOK
  00a0 270a         [3/1]   BEQ   *+12 ;abs = 00ac
  175:    {
  176:      (void)Packet_Put(Packet_Command += 0x80, Packet_Parameter1, Packet_Parameter2, Packet_Parameter3);
  00a2 f60000       [3]     LDAB  Packet
  00a5 cb80         [1]     ADDB  #128
  00a7 7b0000       [3]     STAB  Packet
  177:    }
  00aa 2007         [3]     BRA   *+9 ;abs = 00b3
  178:    else if (bACK)
  00ac ec80         [3]     LDD   0,SP
  00ae 2714         [3/1]   BEQ   *+22 ;abs = 00c4
  179:      (void)Packet_Put(Packet_Command, Packet_Parameter1, Packet_Parameter2, Packet_Parameter3);
  00b0 f60000       [3]     LDAB  Packet
  00b3 37           [2]     PSHB  
  00b4 f60000       [3]     LDAB  Packet:1
  00b7 37           [2]     PSHB  
  00b8 f60000       [3]     LDAB  Packet:3
  00bb 37           [2]     PSHB  
  00bc f60000       [3]     LDAB  Packet:2
  00bf 160000       [4]     JSR   Packet_Put
  00c2 1b83         [2]     LEAS  3,SP
  180:    
  181:  
  182:    
  183:   }
  00c4 3a           [3]     PULD  
  00c5 3d           [5]     RTS   
  184:  
  185:  //---------------------------------
  186:  //  MCCNT_ISR
  187:  //
  188:  //  The ISR for Modulus Count.
  189:  //  This will send the analog values to the pc
  190:  //  Input: none
  191:  //  Output: none
  192:  //  Conditions: none    
  193:   void interrupt 26 MCCNT_ISR(void)
  194:   {
*** EVALUATION ***

Function: MCCNT_ISR
Source  : F:\Dropbox\S11\Embedded Software\Assignments\demdanruto\Project\Sources\main.c
Options : -CPUHCS12 -D__NO_FLOAT__ -Env"GENPATH=F:\Dropbox\S11\Embedded Software\Assignments\demdanruto\Project;F:\Dropbox\S11\Embedded Software\Assignments\demdanruto\Project\bin;F:\Dropbox\S11\Embedded Software\Assignments\demdanruto\Project\prm;F:\Dropbox\S11\Embedded Software\Assignments\demdanruto\Project\cmd;F:\Dropbox\S11\Embedded Software\Assignments\demdanruto\Project\Sources;C:\Program Files (x86)\Freescale\CWS12v5.1\lib\HC12c\lib;C:\Program Files (x86)\Freescale\CWS12v5.1\lib\HC12c\src;F:\Dropbox\S11\Embedded Software\Assignments\demdanruto\Project\lib;C:\Program Files (x86)\Freescale\CWS12v5.1\lib\HC12c\include" -Env"LIBPATH=C:\Program Files (x86)\Freescale\CWS12v5.1\lib\HC12c\include" -Env"OBJPATH=F:\Dropbox\S11\Embedded Software\Assignments\demdanruto\Project\bin" -Env"TEXTPATH=F:\Dropbox\S11\Embedded Software\Assignments\demdanruto\Project\bin" -Lasm=%n.lst -Ms -ObjN="F:\Dropbox\S11\Embedded Software\Assignments\demdanruto\Project\Project_Data\Full_Chip_Simulation\ObjectCode\main.c.o" -WmsgSd1106 -WmsgSd5703

  0000 1b9c         [2]     LEAS  -4,SP
  195:    INT32 voltage, current;
  196:    MCFLG_MCZF = 1; // Clear/Ack
  0002 4c0080       [4]     BSET  _MCFLG,#128
  197:    
  198:    
  199:    if (Debug)
  0005 fc0420       [3]     LDD   1056
  0008 2708         [3/1]   BEQ   *+10 ;abs = 0012
  200:      PTT_PTT4 ^= 1;
  000a f60000       [3]     LDAB  _PTT
  000d c810         [1]     EORB  #16
  000f 7b0000       [3]     STAB  _PTT
  201:    
  202:    Analog_Put(Ch1);
  0012 c7           [1]     CLRB  
  0013 87           [1]     CLRA  
  0014 160000       [4]     JSR   Analog_Put
  203:    Analog_Get(Ch1);
  0017 c7           [1]     CLRB  
  0018 87           [1]     CLRA  
  0019 160000       [4]     JSR   Analog_Get
  204:    Analog_Put(Ch2);
  001c c601         [1]     LDAB  #1
  001e 87           [1]     CLRA  
  001f 160000       [4]     JSR   Analog_Put
  205:    Analog_Get(Ch2);
  0022 c601         [1]     LDAB  #1
  0024 87           [1]     CLRA  
  0025 160000       [4]     JSR   Analog_Get
  206:    
  207:    // In ASYNC mode, we send only if the value has changed.
  208:    if (sControlMode == PACKET_ASYNCHRONOUS)
  0028 fc0404       [3]     LDD   1028
  002b 2660         [3/1]   BNE   *+98 ;abs = 008d
  209:    {
  210:      if (Analog_Input[Ch1].OldValue.l != Analog_Input[Ch1].Value.l)
  002d fc0000       [3]     LDD   Analog_Input:2
  0030 bc0000       [3]     CPD   Analog_Input
  0033 2705         [3/1]   BEQ   *+7 ;abs = 003a
  211:        (void)HandleAnalogValPacket(Ch1);
  0035 c7           [1]     CLRB  
  0036 87           [1]     CLRA  
  0037 160000       [4]     JSR   HandleAnalogValPacket
  212:      if (Analog_Input[Ch2].OldValue.l != Analog_Input[Ch2].Value.l)
  003a fc0000       [3]     LDD   Analog_Input:12
  003d bc0000       [3]     CPD   Analog_Input:10
  0040 2706         [3/1]   BEQ   *+8 ;abs = 0048
  213:        (void)HandleAnalogValPacket(Ch2);
  0042 c601         [1]     LDAB  #1
  0044 87           [1]     CLRA  
  0045 160000       [4]     JSR   HandleAnalogValPacket
  214:      
  215:      if (SampleCount >= DEM_PWRSIZE)
  0048 fc0000       [3]     LDD   SampleCount
  004b 8c0010       [2]     CPD   #16
  004e 250b         [3/1]   BCS   *+13 ;abs = 005b
  216:      {
  217:        SampleCount = 0;
  0050 c7           [1]     CLRB  
  0051 87           [1]     CLRA  
  0052 7c0000       [3]     STD   SampleCount
  218:        Math_FindEnergy(DEM_AvePower_Array);
  0055 cc0000       [2]     LDD   #DEM_AvePower_Array
  0058 160000       [4]     JSR   Math_FindEnergy
  219:      }
  220:      
  221:      voltage = Math_ConvertADCValue(Analog_Input[Ch1].Value.l);
  005b fc0000       [3]     LDD   Analog_Input
  005e 160000       [4]     JSR   _ILSEXT
  0061 160000       [4]     JSR   Math_ConvertADCValue
  0064 6c82         [2]     STD   2,SP
  0066 6e80         [2]     STX   0,SP
  222:      current = Math_ConvertADCValue(Analog_Input[Ch2].Value.l);
  0068 fc0000       [3]     LDD   Analog_Input:10
  006b 160000       [4]     JSR   _ILSEXT
  006e 160000       [4]     JSR   Math_ConvertADCValue
  223:      DEM_AvePower_Array[SampleCount] = Math_FindPower(voltage, current);
  0071 ee82         [3]     LDX   2,SP
  0073 34           [2]     PSHX  
  0074 160000       [4]     JSR   Math_FindPower
  0077 30           [3]     PULX  
  0078 b746         [1]     TFR   D,Y
  007a fc0000       [3]     LDD   SampleCount
  007d 59           [1]     LSLD  
  007e b745         [1]     TFR   D,X
  0080 6de20000     [3]     STY   DEM_AvePower_Array,X
  224:      SampleCount++;
  0084 fe0000       [3]     LDX   SampleCount
  0087 08           [1]     INX   
  0088 7e0000       [3]     STX   SampleCount
  225:      
  226:      
  227:    }
  008b 200b         [3]     BRA   *+13 ;abs = 0098
  228:    // In SYNC mode, we send all the time.
  229:    else
  230:    {
  231:      (void)HandleAnalogValPacket(Ch1);
  008d c7           [1]     CLRB  
  008e 87           [1]     CLRA  
  008f 160000       [4]     JSR   HandleAnalogValPacket
  232:      (void)HandleAnalogValPacket(Ch2);
  0092 c601         [1]     LDAB  #1
  0094 87           [1]     CLRA  
  0095 160000       [4]     JSR   HandleAnalogValPacket
  233:    }
  234:    
  235:    /*
  236:    Clock_MilliSeconds += 2;
  237:    if (Clock_MilliSeconds >= 1000)
  238:    {
  239:      if (Debug)
  240:      {
  241:        Clock_Hours++;
  242:        Clock_MilliSeconds -= 1000;  // 1 second has passed
  243:        
  244:        if (Clock_Hours >= 24)
  245:        {
  246:          Clock_Days++;
  247:          Clock_Hours -= 24;
  248:        }
  249:      }
  250:      
  251:      Clock_Seconds++;
  252:      Clock_Interval++;
  253:      Clock_MilliSeconds -= 1000;  // 1 second has passed
  254:      
  255:      
  256:      
  257:      if (Clock_Seconds >= 60)
  258:      {
  259:      Clock_Minutes++;               // 1 minute has passed
  260:      Clock_Seconds -= 60;
  261:      }
  262:      
  263:      if (Clock_Minutes >= 60)
  264:      {
  265:        Clock_Hours++;
  266:        Clock_Minutes -= 60;
  267:      }
  268:         
  269:      if (Clock_Hours >= 24)
  270:      {
  271:        Clock_Days++;
  272:        Clock_Hours -= 24;
  273:      }
  274:    }
  275:    
  276:    Use later when ditching Clock*/
  277:    
  278:    
  279:   }
  0098 1b84         [2]     LEAS  4,SP
  009a 0b           [8]     RTI   
  280:     
  281:   
  282:  
  283:  //---------------------------------
  284:  //  HandleStartupPacket
  285:  //
  286:  //  Creates the packet that will be in
  287:  //  response to the startup call by the PC.
  288:  //  Input: none
  289:  //  Output: none
  290:  //  Conditions: none
  291:  BOOL HandleStartupPacket(void)
  292:  {
*** EVALUATION ***

Function: HandleStartupPacket
Source  : F:\Dropbox\S11\Embedded Software\Assignments\demdanruto\Project\Sources\main.c
Options : -CPUHCS12 -D__NO_FLOAT__ -Env"GENPATH=F:\Dropbox\S11\Embedded Software\Assignments\demdanruto\Project;F:\Dropbox\S11\Embedded Software\Assignments\demdanruto\Project\bin;F:\Dropbox\S11\Embedded Software\Assignments\demdanruto\Project\prm;F:\Dropbox\S11\Embedded Software\Assignments\demdanruto\Project\cmd;F:\Dropbox\S11\Embedded Software\Assignments\demdanruto\Project\Sources;C:\Program Files (x86)\Freescale\CWS12v5.1\lib\HC12c\lib;C:\Program Files (x86)\Freescale\CWS12v5.1\lib\HC12c\src;F:\Dropbox\S11\Embedded Software\Assignments\demdanruto\Project\lib;C:\Program Files (x86)\Freescale\CWS12v5.1\lib\HC12c\include" -Env"LIBPATH=C:\Program Files (x86)\Freescale\CWS12v5.1\lib\HC12c\include" -Env"OBJPATH=F:\Dropbox\S11\Embedded Software\Assignments\demdanruto\Project\bin" -Env"TEXTPATH=F:\Dropbox\S11\Embedded Software\Assignments\demdanruto\Project\bin" -Lasm=%n.lst -Ms -ObjN="F:\Dropbox\S11\Embedded Software\Assignments\demdanruto\Project\Project_Data\Full_Chip_Simulation\ObjectCode\main.c.o" -WmsgSd1106 -WmsgSd5703

  293:    if(Packet_Parameter1 != 0 || Packet_Parameter1 != 0 || Packet_Parameter3 != 0)
  0000 f60000       [3]     LDAB  Packet:1
  0003 2639         [3/1]   BNE   *+59 ;abs = 003e
  0005 f60000       [3]     LDAB  Packet:2
  0008 2702         [3/1]   BEQ   *+4 ;abs = 000c
  294:    {
  295:      return bFALSE;  
  000a 2032         [3]     BRA   *+52 ;abs = 003e
  296:    }
  297:      
  298:    
  299:    return Packet_Put(CMD_STARTUP, 0, 0, 0) && // startup takes 0 for all parameters
  000c c604         [1]     LDAB  #4
  000e 37           [2]     PSHB  
  000f c7           [1]     CLRB  
  0010 37           [2]     PSHB  
  0011 37           [2]     PSHB  
  0012 160000       [4]     JSR   Packet_Put
  0015 1b83         [2]     LEAS  3,SP
  0017 044424       [3]     TBEQ  D,*+39 ;abs = 003e
  300:           HandleSpecialPacket() &&
  001a 160000       [4]     JSR   HandleSpecialPacket
  001d 04441e       [3]     TBEQ  D,*+33 ;abs = 003e
  301:           HandleNumberPacket() &&
  0020 160000       [4]     JSR   HandleNumberPacket
  0023 044418       [3]     TBEQ  D,*+27 ;abs = 003e
  302:           HandleModePacket() &&
  0026 160000       [4]     JSR   HandleModePacket
  0029 044412       [3]     TBEQ  D,*+21 ;abs = 003e
  303:           Packet_Put( CMD_MODCON_PMODE, 1, (UINT8)sControlMode, 0 );
  002c cc010a       [2]     LDD   #266
  002f 37           [2]     PSHB  
  0030 36           [2]     PSHA  
  0031 f60405       [3]     LDAB  1029
  0034 37           [2]     PSHB  
  0035 c7           [1]     CLRB  
  0036 160000       [4]     JSR   Packet_Put
  0039 1b83         [2]     LEAS  3,SP
  003b 046402       [3]     TBNE  D,*+5 ;abs = 0040
  003e c7           [1]     CLRB  
  003f 8f           [2]     SKIP2 
  0040 c601         [1]     LDAB  #1
  0042 87           [1]     CLRA  
  304:  }
  0043 3d           [5]     RTS   
  305:  
  306:  //---------------------------------
  307:  //  HandleSpecialPacket
  308:  //
  309:  //  Creates the packet that will be in
  310:  //  response to the special call by the PC.
  311:  //  It responds with the ModCon Version.
  312:  //  Input: none
  313:  //  Output: none
  314:  //  Conditions: none
  315:  BOOL HandleSpecialPacket(void)
  316:  {
*** EVALUATION ***

Function: HandleSpecialPacket
Source  : F:\Dropbox\S11\Embedded Software\Assignments\demdanruto\Project\Sources\main.c
Options : -CPUHCS12 -D__NO_FLOAT__ -Env"GENPATH=F:\Dropbox\S11\Embedded Software\Assignments\demdanruto\Project;F:\Dropbox\S11\Embedded Software\Assignments\demdanruto\Project\bin;F:\Dropbox\S11\Embedded Software\Assignments\demdanruto\Project\prm;F:\Dropbox\S11\Embedded Software\Assignments\demdanruto\Project\cmd;F:\Dropbox\S11\Embedded Software\Assignments\demdanruto\Project\Sources;C:\Program Files (x86)\Freescale\CWS12v5.1\lib\HC12c\lib;C:\Program Files (x86)\Freescale\CWS12v5.1\lib\HC12c\src;F:\Dropbox\S11\Embedded Software\Assignments\demdanruto\Project\lib;C:\Program Files (x86)\Freescale\CWS12v5.1\lib\HC12c\include" -Env"LIBPATH=C:\Program Files (x86)\Freescale\CWS12v5.1\lib\HC12c\include" -Env"OBJPATH=F:\Dropbox\S11\Embedded Software\Assignments\demdanruto\Project\bin" -Env"TEXTPATH=F:\Dropbox\S11\Embedded Software\Assignments\demdanruto\Project\bin" -Lasm=%n.lst -Ms -ObjN="F:\Dropbox\S11\Embedded Software\Assignments\demdanruto\Project\Project_Data\Full_Chip_Simulation\ObjectCode\main.c.o" -WmsgSd1106 -WmsgSd5703

  317:    switch (Packet_Parameter1)
  0000 f60000       [3]     LDAB  Packet:1
  0003 c164         [1]     CMPB  #100
  0005 2610         [3/1]   BNE   *+18 ;abs = 0017
  318:    {
  319:      case 'v':
  320:        return Packet_Put(CMD_SPECIAL, 'v', MAJOR_VERSION, MINOR_VERSION);
  321:        break;
  322:      case 'd':
  323:        EEPROM_Write16(&Debug, Debug ^ 1); // Set debug
  0007 cc0420       [2]     LDD   #1056
  000a 3b           [2]     PSHD  
  000b fc0420       [3]     LDD   1056
  000e c801         [1]     EORB  #1
  0010 160000       [4]     JSR   EEPROM_Write16
  0013 3a           [3]     PULD  
  324:        return HandleTimePacket();
  0014 060000       [3]     JMP   HandleTimePacket
  325:        break;
  326:    }
  327:    
  328:    // If called by Startup Packet
  329:    return Packet_Put(CMD_SPECIAL, 'v', MAJOR_VERSION, MINOR_VERSION);
  0017 cc7609       [2]     LDD   #30217
  001a 37           [2]     PSHB  
  001b 36           [2]     PSHA  
  001c c601         [1]     LDAB  #1
  001e 37           [2]     PSHB  
  001f c7           [1]     CLRB  
  0020 160000       [4]     JSR   Packet_Put
  0023 1b83         [2]     LEAS  3,SP
  330:  }
  0025 3d           [5]     RTS   
  331:  
  332:  //---------------------------------
  333:  //  HandleNumberPacket
  334:  //
  335:  //  Creates the packet that will be in
  336:  //  response to the ModCon number call by the PC.
  337:  //  It responds with the last five digits of our
  338:  //  student number.
  339:  //  Input: none
  340:  //  Output: none
  341:  //  Conditions: none
  342:  BOOL HandleNumberPacket(void)
  343:  {
*** EVALUATION ***

Function: HandleNumberPacket
Source  : F:\Dropbox\S11\Embedded Software\Assignments\demdanruto\Project\Sources\main.c
Options : -CPUHCS12 -D__NO_FLOAT__ -Env"GENPATH=F:\Dropbox\S11\Embedded Software\Assignments\demdanruto\Project;F:\Dropbox\S11\Embedded Software\Assignments\demdanruto\Project\bin;F:\Dropbox\S11\Embedded Software\Assignments\demdanruto\Project\prm;F:\Dropbox\S11\Embedded Software\Assignments\demdanruto\Project\cmd;F:\Dropbox\S11\Embedded Software\Assignments\demdanruto\Project\Sources;C:\Program Files (x86)\Freescale\CWS12v5.1\lib\HC12c\lib;C:\Program Files (x86)\Freescale\CWS12v5.1\lib\HC12c\src;F:\Dropbox\S11\Embedded Software\Assignments\demdanruto\Project\lib;C:\Program Files (x86)\Freescale\CWS12v5.1\lib\HC12c\include" -Env"LIBPATH=C:\Program Files (x86)\Freescale\CWS12v5.1\lib\HC12c\include" -Env"OBJPATH=F:\Dropbox\S11\Embedded Software\Assignments\demdanruto\Project\bin" -Env"TEXTPATH=F:\Dropbox\S11\Embedded Software\Assignments\demdanruto\Project\bin" -Lasm=%n.lst -Ms -ObjN="F:\Dropbox\S11\Embedded Software\Assignments\demdanruto\Project\Project_Data\Full_Chip_Simulation\ObjectCode\main.c.o" -WmsgSd1106 -WmsgSd5703

  0000 3b           [2]     PSHD  
  344:    TUINT16 NbModCon;
  345:    if (Packet_Parameter1 == 2)
  0001 f60000       [3]     LDAB  Packet:1
  0004 c102         [1]     CMPB  #2
  0006 260c         [3/1]   BNE   *+14 ;abs = 0014
  346:    {
  347:      NbModCon.s.Lo = Packet_Parameter2;
  0008 f60000       [3]     LDAB  Packet:3
  000b 6b81         [2]     STAB  1,SP
  348:      NbModCon.s.Hi = Packet_Parameter3;
  000d f60000       [3]     LDAB  Packet:2
  0010 6b80         [2]     STAB  0,SP
  349:      
  350:    }
  0012 2005         [3]     BRA   *+7 ;abs = 0019
  351:    else
  352:    {
  353:      NbModCon.l = sModConNb;
  0014 fc0400       [3]     LDD   1024
  0017 6c80         [2]     STD   0,SP
  354:    }
  355:    
  356:    return Packet_Put(CMD_MODCON_NB, 1, NbModCon.s.Lo, NbModCon.s.Hi);
  0019 cc010b       [2]     LDD   #267
  001c 37           [2]     PSHB  
  001d 36           [2]     PSHA  
  001e e683         [3]     LDAB  3,SP
  0020 37           [2]     PSHB  
  0021 e683         [3]     LDAB  3,SP
  0023 160000       [4]     JSR   Packet_Put
  0026 1b83         [2]     LEAS  3,SP
  357:    
  358:  }
  0028 30           [3]     PULX  
  0029 3d           [5]     RTS   
  359:  
  360:  //---------------------------------
  361:  //  HandleModePacket
  362:  //
  363:  //  Creates the packet that will be in
  364:  //  response to the ModCon mode call by the PC.
  365:  //  It responds with the modcon mode
  366:  //  Input: none
  367:  //  Output: none
  368:  //  Conditions: none
  369:  BOOL HandleModePacket(void)
  370:  {
*** EVALUATION ***

Function: HandleModePacket
Source  : F:\Dropbox\S11\Embedded Software\Assignments\demdanruto\Project\Sources\main.c
Options : -CPUHCS12 -D__NO_FLOAT__ -Env"GENPATH=F:\Dropbox\S11\Embedded Software\Assignments\demdanruto\Project;F:\Dropbox\S11\Embedded Software\Assignments\demdanruto\Project\bin;F:\Dropbox\S11\Embedded Software\Assignments\demdanruto\Project\prm;F:\Dropbox\S11\Embedded Software\Assignments\demdanruto\Project\cmd;F:\Dropbox\S11\Embedded Software\Assignments\demdanruto\Project\Sources;C:\Program Files (x86)\Freescale\CWS12v5.1\lib\HC12c\lib;C:\Program Files (x86)\Freescale\CWS12v5.1\lib\HC12c\src;F:\Dropbox\S11\Embedded Software\Assignments\demdanruto\Project\lib;C:\Program Files (x86)\Freescale\CWS12v5.1\lib\HC12c\include" -Env"LIBPATH=C:\Program Files (x86)\Freescale\CWS12v5.1\lib\HC12c\include" -Env"OBJPATH=F:\Dropbox\S11\Embedded Software\Assignments\demdanruto\Project\bin" -Env"TEXTPATH=F:\Dropbox\S11\Embedded Software\Assignments\demdanruto\Project\bin" -Lasm=%n.lst -Ms -ObjN="F:\Dropbox\S11\Embedded Software\Assignments\demdanruto\Project\Project_Data\Full_Chip_Simulation\ObjectCode\main.c.o" -WmsgSd1106 -WmsgSd5703

  371:    TUINT16 mode;
  372:    mode.l = sModConMode;
  0000 fc0402       [3]     LDD   1026
  0003 3b           [2]     PSHD  
  373:    return Packet_Put(CMD_MODCON_MODE, 1, mode.s.Lo, mode.s.Hi);
  0004 cc010d       [2]     LDD   #269
  0007 37           [2]     PSHB  
  0008 36           [2]     PSHA  
  0009 e683         [3]     LDAB  3,SP
  000b 37           [2]     PSHB  
  000c e683         [3]     LDAB  3,SP
  000e 160000       [4]     JSR   Packet_Put
  0011 1b83         [2]     LEAS  3,SP
  374:  }
  0013 30           [3]     PULX  
  0014 3d           [5]     RTS   
  375:  
  376:  //---------------------------------
  377:  //  HandleEEPROMProgramPacket
  378:  //
  379:  //  Creates the packet that will be in
  380:  //  response to the ModCon EEPROM Programming call by the PC.
  381:  //  It responds by writing the data recieved
  382:  //  Input: none
  383:  //  Output: none
  384:  //  Conditions: none
  385:  BOOL HandleEEPROMProgramPacket(void)
  386:  {
*** EVALUATION ***

Function: HandleEEPROMProgramPacket
Source  : F:\Dropbox\S11\Embedded Software\Assignments\demdanruto\Project\Sources\main.c
Options : -CPUHCS12 -D__NO_FLOAT__ -Env"GENPATH=F:\Dropbox\S11\Embedded Software\Assignments\demdanruto\Project;F:\Dropbox\S11\Embedded Software\Assignments\demdanruto\Project\bin;F:\Dropbox\S11\Embedded Software\Assignments\demdanruto\Project\prm;F:\Dropbox\S11\Embedded Software\Assignments\demdanruto\Project\cmd;F:\Dropbox\S11\Embedded Software\Assignments\demdanruto\Project\Sources;C:\Program Files (x86)\Freescale\CWS12v5.1\lib\HC12c\lib;C:\Program Files (x86)\Freescale\CWS12v5.1\lib\HC12c\src;F:\Dropbox\S11\Embedded Software\Assignments\demdanruto\Project\lib;C:\Program Files (x86)\Freescale\CWS12v5.1\lib\HC12c\include" -Env"LIBPATH=C:\Program Files (x86)\Freescale\CWS12v5.1\lib\HC12c\include" -Env"OBJPATH=F:\Dropbox\S11\Embedded Software\Assignments\demdanruto\Project\bin" -Env"TEXTPATH=F:\Dropbox\S11\Embedded Software\Assignments\demdanruto\Project\bin" -Lasm=%n.lst -Ms -ObjN="F:\Dropbox\S11\Embedded Software\Assignments\demdanruto\Project\Project_Data\Full_Chip_Simulation\ObjectCode\main.c.o" -WmsgSd1106 -WmsgSd5703

  0000 3b           [2]     PSHD  
  387:    TUINT16 address;
  388:    address.s.Lo = Packet_Parameter1;    //LSB
  0001 f60000       [3]     LDAB  Packet:1
  0004 6b81         [2]     STAB  1,SP
  389:    address.s.Hi = Packet_Parameter2;    //MSB
  0006 f60000       [3]     LDAB  Packet:3
  0009 6b80         [2]     STAB  0,SP
  390:    
  391:    if (address.s.Hi == 10 && address.s.Lo == 0)
  000b c10a         [1]     CMPB  #10
  000d 2609         [3/1]   BNE   *+11 ;abs = 0018
  000f e681         [3]     LDAB  1,SP
  0011 2605         [3/1]   BNE   *+7 ;abs = 0018
  392:      return EEPROM_Erase();
  0013 160000       [4]     JSR   EEPROM_Erase
  0016 200b         [3]     BRA   *+13 ;abs = 0023
  393:  
  394:    return EEPROM_Write8( (volatile UINT8 *)address.l, Packet_Parameter3 ); 
  0018 ec80         [3]     LDD   0,SP
  001a 3b           [2]     PSHD  
  001b f60000       [3]     LDAB  Packet:2
  001e 160000       [4]     JSR   EEPROM_Write8
  0021 1b82         [2]     LEAS  2,SP
  395:  }
  0023 30           [3]     PULX  
  0024 3d           [5]     RTS   
  396:  
  397:  //---------------------------------
  398:  //  HandleEEPROMGetPacket
  399:  //
  400:  //  Creates the packet that will be in
  401:  //  response to the ModCon mode call by the PC.
  402:  //  It responds with the modcon mode
  403:  //  Input: none
  404:  //  Output: none
  405:  //  Conditions: none
  406:  BOOL HandleEEPROMGetPacket(void)
  407:  {
*** EVALUATION ***

Function: HandleEEPROMGetPacket
Source  : F:\Dropbox\S11\Embedded Software\Assignments\demdanruto\Project\Sources\main.c
Options : -CPUHCS12 -D__NO_FLOAT__ -Env"GENPATH=F:\Dropbox\S11\Embedded Software\Assignments\demdanruto\Project;F:\Dropbox\S11\Embedded Software\Assignments\demdanruto\Project\bin;F:\Dropbox\S11\Embedded Software\Assignments\demdanruto\Project\prm;F:\Dropbox\S11\Embedded Software\Assignments\demdanruto\Project\cmd;F:\Dropbox\S11\Embedded Software\Assignments\demdanruto\Project\Sources;C:\Program Files (x86)\Freescale\CWS12v5.1\lib\HC12c\lib;C:\Program Files (x86)\Freescale\CWS12v5.1\lib\HC12c\src;F:\Dropbox\S11\Embedded Software\Assignments\demdanruto\Project\lib;C:\Program Files (x86)\Freescale\CWS12v5.1\lib\HC12c\include" -Env"LIBPATH=C:\Program Files (x86)\Freescale\CWS12v5.1\lib\HC12c\include" -Env"OBJPATH=F:\Dropbox\S11\Embedded Software\Assignments\demdanruto\Project\bin" -Env"TEXTPATH=F:\Dropbox\S11\Embedded Software\Assignments\demdanruto\Project\bin" -Lasm=%n.lst -Ms -ObjN="F:\Dropbox\S11\Embedded Software\Assignments\demdanruto\Project\Project_Data\Full_Chip_Simulation\ObjectCode\main.c.o" -WmsgSd1106 -WmsgSd5703

  0000 3b           [2]     PSHD  
  408:    TUINT16 address;
  409:    address.s.Lo = Packet_Parameter1;
  0001 f60000       [3]     LDAB  Packet:1
  0004 6b81         [2]     STAB  1,SP
  410:    address.s.Hi = Packet_Parameter2;
  0006 b60000       [3]     LDAA  Packet:3
  0009 6a80         [2]     STAA  0,SP
  411:    
  412:    if ( (Packet_Parameter2 > 0x0F) || (Packet_Parameter2 < 0x04) )
  000b 810f         [1]     CMPA  #15
  000d 2204         [3/1]   BHI   *+6 ;abs = 0013
  000f 8104         [1]     CMPA  #4
  0011 2404         [3/1]   BCC   *+6 ;abs = 0017
  413:      return bFALSE;
  0013 c7           [1]     CLRB  
  0014 87           [1]     CLRA  
  0015 2011         [3]     BRA   *+19 ;abs = 0028
  414:    
  415:    return Packet_Put( CMD_EEPROM_GET, Packet_Parameter1, Packet_Parameter2, _EB(address.l) ); // cmd, lsb, msb, data
  0017 c608         [1]     LDAB  #8
  0019 37           [2]     PSHB  
  001a f60000       [3]     LDAB  Packet:1
  001d 37           [2]     PSHB  
  001e 36           [2]     PSHA  
  001f ee83         [3]     LDX   3,SP
  0021 e600         [3]     LDAB  0,X
  0023 160000       [4]     JSR   Packet_Put
  0026 1b83         [2]     LEAS  3,SP
  416:  }
  0028 30           [3]     PULX  
  0029 3d           [5]     RTS   
  417:  
  418:  //---------------------------------
  419:  //  HandleTimePacket
  420:  //
  421:  //  Creates the packet that will be in
  422:  //  response to the ModCon time call by the PC.
  423:  //  It responds with the modcon time
  424:  //  Input: none
  425:  //  Output: none
  426:  //  Conditions: none
  427:  BOOL HandleTimePacket(void)
  428:  {
*** EVALUATION ***

Function: HandleTimePacket
Source  : F:\Dropbox\S11\Embedded Software\Assignments\demdanruto\Project\Sources\main.c
Options : -CPUHCS12 -D__NO_FLOAT__ -Env"GENPATH=F:\Dropbox\S11\Embedded Software\Assignments\demdanruto\Project;F:\Dropbox\S11\Embedded Software\Assignments\demdanruto\Project\bin;F:\Dropbox\S11\Embedded Software\Assignments\demdanruto\Project\prm;F:\Dropbox\S11\Embedded Software\Assignments\demdanruto\Project\cmd;F:\Dropbox\S11\Embedded Software\Assignments\demdanruto\Project\Sources;C:\Program Files (x86)\Freescale\CWS12v5.1\lib\HC12c\lib;C:\Program Files (x86)\Freescale\CWS12v5.1\lib\HC12c\src;F:\Dropbox\S11\Embedded Software\Assignments\demdanruto\Project\lib;C:\Program Files (x86)\Freescale\CWS12v5.1\lib\HC12c\include" -Env"LIBPATH=C:\Program Files (x86)\Freescale\CWS12v5.1\lib\HC12c\include" -Env"OBJPATH=F:\Dropbox\S11\Embedded Software\Assignments\demdanruto\Project\bin" -Env"TEXTPATH=F:\Dropbox\S11\Embedded Software\Assignments\demdanruto\Project\bin" -Lasm=%n.lst -Ms -ObjN="F:\Dropbox\S11\Embedded Software\Assignments\demdanruto\Project\Project_Data\Full_Chip_Simulation\ObjectCode\main.c.o" -WmsgSd1106 -WmsgSd5703

  429:    // Intervals : 'i', Seconds, Minutes
  430:    return Packet_Put(CMD_MODCON_TIME, 'i', Clock_Seconds, Clock_Minutes);
  0000 cc690c       [2]     LDD   #26892
  0003 37           [2]     PSHB  
  0004 36           [2]     PSHA  
  0005 f60000       [3]     LDAB  Clock_Seconds
  0008 37           [2]     PSHB  
  0009 f60000       [3]     LDAB  Clock_Minutes
  000c 160000       [4]     JSR   Packet_Put
  000f 1b83         [2]     LEAS  3,SP
  431:  }
  0011 3d           [5]     RTS   
  432:  
  433:  //---------------------------------
  434:  //  HandlePacketModePacket
  435:  //
  436:  //  Creates the packet that will be in
  437:  //  response to the ModCon Packet Mode call by the PC.
  438:  //  It responds with the Packet Mode
  439:  //  Input: none
  440:  //  Output: none
  441:  //  Conditions: none
  442:  BOOL HandlePacketModePacket(void)
  443:  {
*** EVALUATION ***

Function: HandlePacketModePacket
Source  : F:\Dropbox\S11\Embedded Software\Assignments\demdanruto\Project\Sources\main.c
Options : -CPUHCS12 -D__NO_FLOAT__ -Env"GENPATH=F:\Dropbox\S11\Embedded Software\Assignments\demdanruto\Project;F:\Dropbox\S11\Embedded Software\Assignments\demdanruto\Project\bin;F:\Dropbox\S11\Embedded Software\Assignments\demdanruto\Project\prm;F:\Dropbox\S11\Embedded Software\Assignments\demdanruto\Project\cmd;F:\Dropbox\S11\Embedded Software\Assignments\demdanruto\Project\Sources;C:\Program Files (x86)\Freescale\CWS12v5.1\lib\HC12c\lib;C:\Program Files (x86)\Freescale\CWS12v5.1\lib\HC12c\src;F:\Dropbox\S11\Embedded Software\Assignments\demdanruto\Project\lib;C:\Program Files (x86)\Freescale\CWS12v5.1\lib\HC12c\include" -Env"LIBPATH=C:\Program Files (x86)\Freescale\CWS12v5.1\lib\HC12c\include" -Env"OBJPATH=F:\Dropbox\S11\Embedded Software\Assignments\demdanruto\Project\bin" -Env"TEXTPATH=F:\Dropbox\S11\Embedded Software\Assignments\demdanruto\Project\bin" -Lasm=%n.lst -Ms -ObjN="F:\Dropbox\S11\Embedded Software\Assignments\demdanruto\Project\Project_Data\Full_Chip_Simulation\ObjectCode\main.c.o" -WmsgSd1106 -WmsgSd5703

  444:    // p1: 2 = set, 1 = get
  445:    // p2: 0 = async, 1 = sync
  446:    // p3: 0
  447:    if (Packet_Parameter1 == 2)
  0000 f60000       [3]     LDAB  Packet:1
  0003 c102         [1]     CMPB  #2
  0005 260e         [3/1]   BNE   *+16 ;abs = 0015
  448:      return EEPROM_Write16(&sControlMode, Packet_Parameter2);
  0007 cc0404       [2]     LDD   #1028
  000a 3b           [2]     PSHD  
  000b f60000       [3]     LDAB  Packet:3
  000e 87           [1]     CLRA  
  000f 160000       [4]     JSR   EEPROM_Write16
  0012 1b82         [2]     LEAS  2,SP
  0014 3d           [5]     RTS   
  449:    if (Packet_Parameter1 == 1)
  0015 04210f       [3]     DBNE  B,*+18 ;abs = 0027
  450:      return Packet_Put( CMD_MODCON_PMODE, 1, (UINT8)sControlMode, 0 ); // cmd, 1, mode, 0;  
  0018 cc010a       [2]     LDD   #266
  001b 37           [2]     PSHB  
  001c 36           [2]     PSHA  
  001d f60405       [3]     LDAB  1029
  0020 37           [2]     PSHB  
  0021 c7           [1]     CLRB  
  0022 160000       [4]     JSR   Packet_Put
  0025 1b83         [2]     LEAS  3,SP
  451:  }
  0027 3d           [5]     RTS   
  452:  
  453:  //---------------------------------
  454:  //  HandleAnalogValPacket
  455:  //
  456:  //  Creates the packet that will be in
  457:  //  response to the ModCon Analog Value call by the PC.
  458:  //  It responds with the current Analog Value
  459:  //  Input: none
  460:  //  Output: none
  461:  //  Conditions: none
  462:  BOOL HandleAnalogValPacket(TChannelNb channelNb)
  463:  {
*** EVALUATION ***

Function: HandleAnalogValPacket
Source  : F:\Dropbox\S11\Embedded Software\Assignments\demdanruto\Project\Sources\main.c
Options : -CPUHCS12 -D__NO_FLOAT__ -Env"GENPATH=F:\Dropbox\S11\Embedded Software\Assignments\demdanruto\Project;F:\Dropbox\S11\Embedded Software\Assignments\demdanruto\Project\bin;F:\Dropbox\S11\Embedded Software\Assignments\demdanruto\Project\prm;F:\Dropbox\S11\Embedded Software\Assignments\demdanruto\Project\cmd;F:\Dropbox\S11\Embedded Software\Assignments\demdanruto\Project\Sources;C:\Program Files (x86)\Freescale\CWS12v5.1\lib\HC12c\lib;C:\Program Files (x86)\Freescale\CWS12v5.1\lib\HC12c\src;F:\Dropbox\S11\Embedded Software\Assignments\demdanruto\Project\lib;C:\Program Files (x86)\Freescale\CWS12v5.1\lib\HC12c\include" -Env"LIBPATH=C:\Program Files (x86)\Freescale\CWS12v5.1\lib\HC12c\include" -Env"OBJPATH=F:\Dropbox\S11\Embedded Software\Assignments\demdanruto\Project\bin" -Env"TEXTPATH=F:\Dropbox\S11\Embedded Software\Assignments\demdanruto\Project\bin" -Lasm=%n.lst -Ms -ObjN="F:\Dropbox\S11\Embedded Software\Assignments\demdanruto\Project\Project_Data\Full_Chip_Simulation\ObjectCode\main.c.o" -WmsgSd1106 -WmsgSd5703

  0000 3b           [2]     PSHD  
  464:    // cmd, channel, lsb, msb
  465:    return Packet_Put(CMD_ANALOG_VALUE, (UINT8)channelNb, Analog_Input[channelNb].Value.s.Lo, Analog_Input[channelNb].Value.s.Hi);  
  0001 c650         [1]     LDAB  #80
  0003 37           [2]     PSHB  
  0004 a682         [3]     LDAA  2,SP
  0006 36           [2]     PSHA  
  0007 c60a         [1]     LDAB  #10
  0009 87           [1]     CLRA  
  000a ed82         [3]     LDY   2,SP
  000c 13           [3]     EMUL  
  000d b745         [1]     TFR   D,X
  000f e6e20000     [4]     LDAB  Analog_Input:1,X
  0013 37           [2]     PSHB  
  0014 e6e20000     [4]     LDAB  Analog_Input,X
  0018 160000       [4]     JSR   Packet_Put
  001b 1b83         [2]     LEAS  3,SP
  466:  }
  001d 30           [3]     PULX  
  001e 3d           [5]     RTS   
  467:  
  468:  void HandleTestModePack(void)
  469:  {
*** EVALUATION ***

Function: HandleTestModePack
Source  : F:\Dropbox\S11\Embedded Software\Assignments\demdanruto\Project\Sources\main.c
Options : -CPUHCS12 -D__NO_FLOAT__ -Env"GENPATH=F:\Dropbox\S11\Embedded Software\Assignments\demdanruto\Project;F:\Dropbox\S11\Embedded Software\Assignments\demdanruto\Project\bin;F:\Dropbox\S11\Embedded Software\Assignments\demdanruto\Project\prm;F:\Dropbox\S11\Embedded Software\Assignments\demdanruto\Project\cmd;F:\Dropbox\S11\Embedded Software\Assignments\demdanruto\Project\Sources;C:\Program Files (x86)\Freescale\CWS12v5.1\lib\HC12c\lib;C:\Program Files (x86)\Freescale\CWS12v5.1\lib\HC12c\src;F:\Dropbox\S11\Embedded Software\Assignments\demdanruto\Project\lib;C:\Program Files (x86)\Freescale\CWS12v5.1\lib\HC12c\include" -Env"LIBPATH=C:\Program Files (x86)\Freescale\CWS12v5.1\lib\HC12c\include" -Env"OBJPATH=F:\Dropbox\S11\Embedded Software\Assignments\demdanruto\Project\bin" -Env"TEXTPATH=F:\Dropbox\S11\Embedded Software\Assignments\demdanruto\Project\bin" -Lasm=%n.lst -Ms -ObjN="F:\Dropbox\S11\Embedded Software\Assignments\demdanruto\Project\Project_Data\Full_Chip_Simulation\ObjectCode\main.c.o" -WmsgSd1106 -WmsgSd5703

  470:    switch(Packet_Parameter1)
  0000 f60000       [3]     LDAB  Packet:1
  0003 2706         [3/1]   BEQ   *+8 ;abs = 000b
  0005 042108       [3]     DBNE  B,*+11 ;abs = 0010
  471:    {
  472:      case 1:
  473:        Debug = 1;
  0008 c601         [1]     LDAB  #1
  474:      break;
  000a 21           [1]     SKIP1 
  475:      case 0:
  476:        Debug = 0;
  000b c7           [1]     CLRB  
  477:      break;
  000c 87           [1]     CLRA  
  000d 7c0420       [3]     STD   1056
  478:    }
  479:  }
  0010 3d           [5]     RTS   
  480:  
  481:  void HandleTarrifPacket(void)
  482:  {
*** EVALUATION ***

Function: HandleTarrifPacket
Source  : F:\Dropbox\S11\Embedded Software\Assignments\demdanruto\Project\Sources\main.c
Options : -CPUHCS12 -D__NO_FLOAT__ -Env"GENPATH=F:\Dropbox\S11\Embedded Software\Assignments\demdanruto\Project;F:\Dropbox\S11\Embedded Software\Assignments\demdanruto\Project\bin;F:\Dropbox\S11\Embedded Software\Assignments\demdanruto\Project\prm;F:\Dropbox\S11\Embedded Software\Assignments\demdanruto\Project\cmd;F:\Dropbox\S11\Embedded Software\Assignments\demdanruto\Project\Sources;C:\Program Files (x86)\Freescale\CWS12v5.1\lib\HC12c\lib;C:\Program Files (x86)\Freescale\CWS12v5.1\lib\HC12c\src;F:\Dropbox\S11\Embedded Software\Assignments\demdanruto\Project\lib;C:\Program Files (x86)\Freescale\CWS12v5.1\lib\HC12c\include" -Env"LIBPATH=C:\Program Files (x86)\Freescale\CWS12v5.1\lib\HC12c\include" -Env"OBJPATH=F:\Dropbox\S11\Embedded Software\Assignments\demdanruto\Project\bin" -Env"TEXTPATH=F:\Dropbox\S11\Embedded Software\Assignments\demdanruto\Project\bin" -Lasm=%n.lst -Ms -ObjN="F:\Dropbox\S11\Embedded Software\Assignments\demdanruto\Project\Project_Data\Full_Chip_Simulation\ObjectCode\main.c.o" -WmsgSd1106 -WmsgSd5703

  483:    switch(Packet_Parameter1)
  0000 f60000       [3]     LDAB  Packet:1
  0003 c103         [1]     CMPB  #3
  0005 221a         [3/1]   BHI   *+28 ;abs = 0021
  0007 53           [1]     DECB  
  0008 87           [1]     CLRA  
  0009 160000       [4]     JSR   _CASE_CHECKED_BYTE
  000c 03           DC.B  3
  000d 13           DC.B  19
  000e 03           DC.B  3
  000f 08           DC.B  8
  0010 0d           DC.B  13
  484:    {
  485:      case 1:
  486:        DEM_Tarrif = sT1OffPeak;
  0011 fc0454       [3]     LDD   1108
  487:      break;
  0014 2008         [3]     BRA   *+10 ;abs = 001e
  488:      case 2:
  489:        DEM_Tarrif = sT2NonTOU;
  0016 fc0456       [3]     LDD   1110
  490:      break;
  0019 2003         [3]     BRA   *+5 ;abs = 001e
  491:      case 3:
  492:        DEM_Tarrif = sT3NonTOU;
  001b fc0458       [3]     LDD   1112
  001e 7c0000       [3]     STD   DEM_Tarrif
  493:      break;
  494:    }
  495:    
  496:    /*if (Packet_Parameter1 == 1 && Packet_Parameter3 == 0)
  497:      DEM_Tarrif = sT1OffPeak;
  498:    else if (Packet_Parameter1 == 2 && Packet_Parameter3 == 0)
  499:      DEM_Tarrif = sT2NonTOU;
  500:    else if (Packet_Parameter1 == 3 && Packet_Parameter3 == 0) 
  501:      DEM_Tarrif = sT3NonTOU;*/
  502:  }
  0021 3d           [5]     RTS   
  503:  
  504:  BOOL HandleTime1Packet(void)
  505:  {
*** EVALUATION ***

Function: HandleTime1Packet
Source  : F:\Dropbox\S11\Embedded Software\Assignments\demdanruto\Project\Sources\main.c
Options : -CPUHCS12 -D__NO_FLOAT__ -Env"GENPATH=F:\Dropbox\S11\Embedded Software\Assignments\demdanruto\Project;F:\Dropbox\S11\Embedded Software\Assignments\demdanruto\Project\bin;F:\Dropbox\S11\Embedded Software\Assignments\demdanruto\Project\prm;F:\Dropbox\S11\Embedded Software\Assignments\demdanruto\Project\cmd;F:\Dropbox\S11\Embedded Software\Assignments\demdanruto\Project\Sources;C:\Program Files (x86)\Freescale\CWS12v5.1\lib\HC12c\lib;C:\Program Files (x86)\Freescale\CWS12v5.1\lib\HC12c\src;F:\Dropbox\S11\Embedded Software\Assignments\demdanruto\Project\lib;C:\Program Files (x86)\Freescale\CWS12v5.1\lib\HC12c\include" -Env"LIBPATH=C:\Program Files (x86)\Freescale\CWS12v5.1\lib\HC12c\include" -Env"OBJPATH=F:\Dropbox\S11\Embedded Software\Assignments\demdanruto\Project\bin" -Env"TEXTPATH=F:\Dropbox\S11\Embedded Software\Assignments\demdanruto\Project\bin" -Lasm=%n.lst -Ms -ObjN="F:\Dropbox\S11\Embedded Software\Assignments\demdanruto\Project\Project_Data\Full_Chip_Simulation\ObjectCode\main.c.o" -WmsgSd1106 -WmsgSd5703

  506:    if (Packet_Parameter3 == 0)
  0000 f60000       [3]     LDAB  Packet:2
  0003 2612         [3/1]   BNE   *+20 ;abs = 0017
  507:      return Packet_Put(CMD_TIME1, (UINT8)Clock_Seconds, (UINT8)Clock_Minutes, 0);
  0005 c612         [1]     LDAB  #18
  0007 37           [2]     PSHB  
  0008 b60000       [3]     LDAA  Clock_Seconds
  000b 36           [2]     PSHA  
  000c b60000       [3]     LDAA  Clock_Minutes
  000f 36           [2]     PSHA  
  0010 c7           [1]     CLRB  
  0011 160000       [4]     JSR   Packet_Put
  0014 1b83         [2]     LEAS  3,SP
  0016 3d           [5]     RTS   
  508:    else
  509:    {
  510:      
  511:      Clock_Seconds = Packet_Parameter1;
  0017 f60000       [3]     LDAB  Packet:1
  001a 7b0000       [3]     STAB  Clock_Seconds
  512:      Clock_Minutes = Packet_Parameter2;
  001d f60000       [3]     LDAB  Packet:3
  0020 7b0000       [3]     STAB  Clock_Minutes
  513:    }
  514:    
  515:  }
  0023 3d           [5]     RTS   
  516:  
  517:  BOOL HandleTime2Packet(void)
  518:  {
*** EVALUATION ***

Function: HandleTime2Packet
Source  : F:\Dropbox\S11\Embedded Software\Assignments\demdanruto\Project\Sources\main.c
Options : -CPUHCS12 -D__NO_FLOAT__ -Env"GENPATH=F:\Dropbox\S11\Embedded Software\Assignments\demdanruto\Project;F:\Dropbox\S11\Embedded Software\Assignments\demdanruto\Project\bin;F:\Dropbox\S11\Embedded Software\Assignments\demdanruto\Project\prm;F:\Dropbox\S11\Embedded Software\Assignments\demdanruto\Project\cmd;F:\Dropbox\S11\Embedded Software\Assignments\demdanruto\Project\Sources;C:\Program Files (x86)\Freescale\CWS12v5.1\lib\HC12c\lib;C:\Program Files (x86)\Freescale\CWS12v5.1\lib\HC12c\src;F:\Dropbox\S11\Embedded Software\Assignments\demdanruto\Project\lib;C:\Program Files (x86)\Freescale\CWS12v5.1\lib\HC12c\include" -Env"LIBPATH=C:\Program Files (x86)\Freescale\CWS12v5.1\lib\HC12c\include" -Env"OBJPATH=F:\Dropbox\S11\Embedded Software\Assignments\demdanruto\Project\bin" -Env"TEXTPATH=F:\Dropbox\S11\Embedded Software\Assignments\demdanruto\Project\bin" -Lasm=%n.lst -Ms -ObjN="F:\Dropbox\S11\Embedded Software\Assignments\demdanruto\Project\Project_Data\Full_Chip_Simulation\ObjectCode\main.c.o" -WmsgSd1106 -WmsgSd5703

  519:    if (Packet_Parameter3 == 0)
  0000 f60000       [3]     LDAB  Packet:2
  0003 2612         [3/1]   BNE   *+20 ;abs = 0017
  520:      return Packet_Put(CMD_TIME2, (UINT8)Clock_Hours, (UINT8)Clock_Days, 0);
  0005 c613         [1]     LDAB  #19
  0007 37           [2]     PSHB  
  0008 b60000       [3]     LDAA  Clock_Hours
  000b 36           [2]     PSHA  
  000c b60000       [3]     LDAA  Clock_Days
  000f 36           [2]     PSHA  
  0010 c7           [1]     CLRB  
  0011 160000       [4]     JSR   Packet_Put
  0014 1b83         [2]     LEAS  3,SP
  0016 3d           [5]     RTS   
  521:    else
  522:    {
  523:      Clock_Hours = Packet_Parameter1;
  0017 f60000       [3]     LDAB  Packet:1
  001a 7b0000       [3]     STAB  Clock_Hours
  524:      Clock_Days = Packet_Parameter2;
  001d f60000       [3]     LDAB  Packet:3
  0020 7b0000       [3]     STAB  Clock_Days
  525:    }
  526:  }
  0023 3d           [5]     RTS   
  527:  
  528:  BOOL HandlePowerPacket(void)
  529:  {
*** EVALUATION ***

Function: HandlePowerPacket
Source  : F:\Dropbox\S11\Embedded Software\Assignments\demdanruto\Project\Sources\main.c
Options : -CPUHCS12 -D__NO_FLOAT__ -Env"GENPATH=F:\Dropbox\S11\Embedded Software\Assignments\demdanruto\Project;F:\Dropbox\S11\Embedded Software\Assignments\demdanruto\Project\bin;F:\Dropbox\S11\Embedded Software\Assignments\demdanruto\Project\prm;F:\Dropbox\S11\Embedded Software\Assignments\demdanruto\Project\cmd;F:\Dropbox\S11\Embedded Software\Assignments\demdanruto\Project\Sources;C:\Program Files (x86)\Freescale\CWS12v5.1\lib\HC12c\lib;C:\Program Files (x86)\Freescale\CWS12v5.1\lib\HC12c\src;F:\Dropbox\S11\Embedded Software\Assignments\demdanruto\Project\lib;C:\Program Files (x86)\Freescale\CWS12v5.1\lib\HC12c\include" -Env"LIBPATH=C:\Program Files (x86)\Freescale\CWS12v5.1\lib\HC12c\include" -Env"OBJPATH=F:\Dropbox\S11\Embedded Software\Assignments\demdanruto\Project\bin" -Env"TEXTPATH=F:\Dropbox\S11\Embedded Software\Assignments\demdanruto\Project\bin" -Lasm=%n.lst -Ms -ObjN="F:\Dropbox\S11\Embedded Software\Assignments\demdanruto\Project\Project_Data\Full_Chip_Simulation\ObjectCode\main.c.o" -WmsgSd1106 -WmsgSd5703

  530:    return Packet_Put(CMD_POWER, DEM_Average_Power.s.Lo, DEM_Average_Power.s.Hi, 0);
  0000 c614         [1]     LDAB  #20
  0002 37           [2]     PSHB  
  0003 b60000       [3]     LDAA  DEM_Average_Power:1
  0006 36           [2]     PSHA  
  0007 b60000       [3]     LDAA  DEM_Average_Power
  000a 36           [2]     PSHA  
  000b c7           [1]     CLRB  
  000c 160000       [4]     JSR   Packet_Put
  000f 1b83         [2]     LEAS  3,SP
  531:  }
  0011 3d           [5]     RTS   
  532:  
  533:  BOOL HandleEnergyPacket(void)
  534:  {
*** EVALUATION ***

Function: HandleEnergyPacket
Source  : F:\Dropbox\S11\Embedded Software\Assignments\demdanruto\Project\Sources\main.c
Options : -CPUHCS12 -D__NO_FLOAT__ -Env"GENPATH=F:\Dropbox\S11\Embedded Software\Assignments\demdanruto\Project;F:\Dropbox\S11\Embedded Software\Assignments\demdanruto\Project\bin;F:\Dropbox\S11\Embedded Software\Assignments\demdanruto\Project\prm;F:\Dropbox\S11\Embedded Software\Assignments\demdanruto\Project\cmd;F:\Dropbox\S11\Embedded Software\Assignments\demdanruto\Project\Sources;C:\Program Files (x86)\Freescale\CWS12v5.1\lib\HC12c\lib;C:\Program Files (x86)\Freescale\CWS12v5.1\lib\HC12c\src;F:\Dropbox\S11\Embedded Software\Assignments\demdanruto\Project\lib;C:\Program Files (x86)\Freescale\CWS12v5.1\lib\HC12c\include" -Env"LIBPATH=C:\Program Files (x86)\Freescale\CWS12v5.1\lib\HC12c\include" -Env"OBJPATH=F:\Dropbox\S11\Embedded Software\Assignments\demdanruto\Project\bin" -Env"TEXTPATH=F:\Dropbox\S11\Embedded Software\Assignments\demdanruto\Project\bin" -Lasm=%n.lst -Ms -ObjN="F:\Dropbox\S11\Embedded Software\Assignments\demdanruto\Project\Project_Data\Full_Chip_Simulation\ObjectCode\main.c.o" -WmsgSd1106 -WmsgSd5703

  535:    return Packet_Put(CMD_POWER, (UINT8)DEM_Total_Energy.s.Lo, (UINT8)DEM_Total_Energy.s.Hi, 0);
  0000 c614         [1]     LDAB  #20
  0002 37           [2]     PSHB  
  0003 b60000       [3]     LDAA  DEM_Total_Energy:3
  0006 36           [2]     PSHA  
  0007 b60000       [3]     LDAA  DEM_Total_Energy:1
  000a 36           [2]     PSHA  
  000b c7           [1]     CLRB  
  000c 160000       [4]     JSR   Packet_Put
  000f 1b83         [2]     LEAS  3,SP
  536:  }
  0011 3d           [5]     RTS   
  537:  
  538:  BOOL HandleCostPacket(void)
  539:  {
*** EVALUATION ***

Function: HandleCostPacket
Source  : F:\Dropbox\S11\Embedded Software\Assignments\demdanruto\Project\Sources\main.c
Options : -CPUHCS12 -D__NO_FLOAT__ -Env"GENPATH=F:\Dropbox\S11\Embedded Software\Assignments\demdanruto\Project;F:\Dropbox\S11\Embedded Software\Assignments\demdanruto\Project\bin;F:\Dropbox\S11\Embedded Software\Assignments\demdanruto\Project\prm;F:\Dropbox\S11\Embedded Software\Assignments\demdanruto\Project\cmd;F:\Dropbox\S11\Embedded Software\Assignments\demdanruto\Project\Sources;C:\Program Files (x86)\Freescale\CWS12v5.1\lib\HC12c\lib;C:\Program Files (x86)\Freescale\CWS12v5.1\lib\HC12c\src;F:\Dropbox\S11\Embedded Software\Assignments\demdanruto\Project\lib;C:\Program Files (x86)\Freescale\CWS12v5.1\lib\HC12c\include" -Env"LIBPATH=C:\Program Files (x86)\Freescale\CWS12v5.1\lib\HC12c\include" -Env"OBJPATH=F:\Dropbox\S11\Embedded Software\Assignments\demdanruto\Project\bin" -Env"TEXTPATH=F:\Dropbox\S11\Embedded Software\Assignments\demdanruto\Project\bin" -Lasm=%n.lst -Ms -ObjN="F:\Dropbox\S11\Embedded Software\Assignments\demdanruto\Project\Project_Data\Full_Chip_Simulation\ObjectCode\main.c.o" -WmsgSd1106 -WmsgSd5703

  540:    return Packet_Put(CMD_COST, (UINT8)Math_FromQN(DEM_Total_Cost, qRight, bFALSE), (UINT8)Math_FromQN(DEM_Total_Cost, qLeft, bFALSE), 0);
  0000 c616         [1]     LDAB  #22
  0002 37           [2]     PSHB  
  0003 fc0000       [3]     LDD   DEM_Total_Cost:2
  0006 3b           [2]     PSHD  
  0007 fc0000       [3]     LDD   DEM_Total_Cost
  000a 3b           [2]     PSHD  
  000b c601         [1]     LDAB  #1
  000d 87           [1]     CLRA  
  000e 3b           [2]     PSHD  
  000f c7           [1]     CLRB  
  0010 160000       [4]     JSR   Math_FromQN
  0013 6ba4         [2]     STAB  5,+SP
  0015 fc0000       [3]     LDD   DEM_Total_Cost:2
  0018 3b           [2]     PSHD  
  0019 fc0000       [3]     LDD   DEM_Total_Cost
  001c 3b           [2]     PSHD  
  001d c7           [1]     CLRB  
  001e 87           [1]     CLRA  
  001f 3b           [2]     PSHD  
  0020 160000       [4]     JSR   Math_FromQN
  0023 6ba4         [2]     STAB  5,+SP
  0025 c7           [1]     CLRB  
  0026 160000       [4]     JSR   Packet_Put
  0029 1b83         [2]     LEAS  3,SP
  541:  }
  002b 3d           [5]     RTS   
  542:  
  543:  BOOL HandleFrquencyPacket(void)
  544:  {
*** EVALUATION ***

Function: HandleFrquencyPacket
Source  : F:\Dropbox\S11\Embedded Software\Assignments\demdanruto\Project\Sources\main.c
Options : -CPUHCS12 -D__NO_FLOAT__ -Env"GENPATH=F:\Dropbox\S11\Embedded Software\Assignments\demdanruto\Project;F:\Dropbox\S11\Embedded Software\Assignments\demdanruto\Project\bin;F:\Dropbox\S11\Embedded Software\Assignments\demdanruto\Project\prm;F:\Dropbox\S11\Embedded Software\Assignments\demdanruto\Project\cmd;F:\Dropbox\S11\Embedded Software\Assignments\demdanruto\Project\Sources;C:\Program Files (x86)\Freescale\CWS12v5.1\lib\HC12c\lib;C:\Program Files (x86)\Freescale\CWS12v5.1\lib\HC12c\src;F:\Dropbox\S11\Embedded Software\Assignments\demdanruto\Project\lib;C:\Program Files (x86)\Freescale\CWS12v5.1\lib\HC12c\include" -Env"LIBPATH=C:\Program Files (x86)\Freescale\CWS12v5.1\lib\HC12c\include" -Env"OBJPATH=F:\Dropbox\S11\Embedded Software\Assignments\demdanruto\Project\bin" -Env"TEXTPATH=F:\Dropbox\S11\Embedded Software\Assignments\demdanruto\Project\bin" -Lasm=%n.lst -Ms -ObjN="F:\Dropbox\S11\Embedded Software\Assignments\demdanruto\Project\Project_Data\Full_Chip_Simulation\ObjectCode\main.c.o" -WmsgSd1106 -WmsgSd5703

  545:    return 0;
  0000 c7           [1]     CLRB  
  0001 87           [1]     CLRA  
  546:  }
  0002 3d           [5]     RTS   
  547:  
  548:  BOOL HandleVRMS(void)
  549:  {
*** EVALUATION ***

Function: HandleVRMS
Source  : F:\Dropbox\S11\Embedded Software\Assignments\demdanruto\Project\Sources\main.c
Options : -CPUHCS12 -D__NO_FLOAT__ -Env"GENPATH=F:\Dropbox\S11\Embedded Software\Assignments\demdanruto\Project;F:\Dropbox\S11\Embedded Software\Assignments\demdanruto\Project\bin;F:\Dropbox\S11\Embedded Software\Assignments\demdanruto\Project\prm;F:\Dropbox\S11\Embedded Software\Assignments\demdanruto\Project\cmd;F:\Dropbox\S11\Embedded Software\Assignments\demdanruto\Project\Sources;C:\Program Files (x86)\Freescale\CWS12v5.1\lib\HC12c\lib;C:\Program Files (x86)\Freescale\CWS12v5.1\lib\HC12c\src;F:\Dropbox\S11\Embedded Software\Assignments\demdanruto\Project\lib;C:\Program Files (x86)\Freescale\CWS12v5.1\lib\HC12c\include" -Env"LIBPATH=C:\Program Files (x86)\Freescale\CWS12v5.1\lib\HC12c\include" -Env"OBJPATH=F:\Dropbox\S11\Embedded Software\Assignments\demdanruto\Project\bin" -Env"TEXTPATH=F:\Dropbox\S11\Embedded Software\Assignments\demdanruto\Project\bin" -Lasm=%n.lst -Ms -ObjN="F:\Dropbox\S11\Embedded Software\Assignments\demdanruto\Project\Project_Data\Full_Chip_Simulation\ObjectCode\main.c.o" -WmsgSd1106 -WmsgSd5703

  550:    return 0;
  0000 c7           [1]     CLRB  
  0001 87           [1]     CLRA  
  551:  }
  0002 3d           [5]     RTS   
  552:  
  553:  BOOL HandleIRMS(void)
  554:  {
*** EVALUATION ***

Function: HandleIRMS
Source  : F:\Dropbox\S11\Embedded Software\Assignments\demdanruto\Project\Sources\main.c
Options : -CPUHCS12 -D__NO_FLOAT__ -Env"GENPATH=F:\Dropbox\S11\Embedded Software\Assignments\demdanruto\Project;F:\Dropbox\S11\Embedded Software\Assignments\demdanruto\Project\bin;F:\Dropbox\S11\Embedded Software\Assignments\demdanruto\Project\prm;F:\Dropbox\S11\Embedded Software\Assignments\demdanruto\Project\cmd;F:\Dropbox\S11\Embedded Software\Assignments\demdanruto\Project\Sources;C:\Program Files (x86)\Freescale\CWS12v5.1\lib\HC12c\lib;C:\Program Files (x86)\Freescale\CWS12v5.1\lib\HC12c\src;F:\Dropbox\S11\Embedded Software\Assignments\demdanruto\Project\lib;C:\Program Files (x86)\Freescale\CWS12v5.1\lib\HC12c\include" -Env"LIBPATH=C:\Program Files (x86)\Freescale\CWS12v5.1\lib\HC12c\include" -Env"OBJPATH=F:\Dropbox\S11\Embedded Software\Assignments\demdanruto\Project\bin" -Env"TEXTPATH=F:\Dropbox\S11\Embedded Software\Assignments\demdanruto\Project\bin" -Lasm=%n.lst -Ms -ObjN="F:\Dropbox\S11\Embedded Software\Assignments\demdanruto\Project\Project_Data\Full_Chip_Simulation\ObjectCode\main.c.o" -WmsgSd1106 -WmsgSd5703

  555:    return 0;
  0000 c7           [1]     CLRB  
  0001 87           [1]     CLRA  
  556:  }
  0002 3d           [5]     RTS   
  557:  
  558:  BOOL HandlePFactor(void)
  559:  {
*** EVALUATION ***

Function: HandlePFactor
Source  : F:\Dropbox\S11\Embedded Software\Assignments\demdanruto\Project\Sources\main.c
Options : -CPUHCS12 -D__NO_FLOAT__ -Env"GENPATH=F:\Dropbox\S11\Embedded Software\Assignments\demdanruto\Project;F:\Dropbox\S11\Embedded Software\Assignments\demdanruto\Project\bin;F:\Dropbox\S11\Embedded Software\Assignments\demdanruto\Project\prm;F:\Dropbox\S11\Embedded Software\Assignments\demdanruto\Project\cmd;F:\Dropbox\S11\Embedded Software\Assignments\demdanruto\Project\Sources;C:\Program Files (x86)\Freescale\CWS12v5.1\lib\HC12c\lib;C:\Program Files (x86)\Freescale\CWS12v5.1\lib\HC12c\src;F:\Dropbox\S11\Embedded Software\Assignments\demdanruto\Project\lib;C:\Program Files (x86)\Freescale\CWS12v5.1\lib\HC12c\include" -Env"LIBPATH=C:\Program Files (x86)\Freescale\CWS12v5.1\lib\HC12c\include" -Env"OBJPATH=F:\Dropbox\S11\Embedded Software\Assignments\demdanruto\Project\bin" -Env"TEXTPATH=F:\Dropbox\S11\Embedded Software\Assignments\demdanruto\Project\bin" -Lasm=%n.lst -Ms -ObjN="F:\Dropbox\S11\Embedded Software\Assignments\demdanruto\Project\Project_Data\Full_Chip_Simulation\ObjectCode\main.c.o" -WmsgSd1106 -WmsgSd5703

  560:    return 0;
  0000 c7           [1]     CLRB  
  0001 87           [1]     CLRA  
  561:  }
  0002 3d           [5]     RTS   
