*** EVALUATION ***
ANSI-C/cC++ Compiler for HC12 V-5.0.41 Build 10203, Jul 23 2010

    1:  // ----------------------------------------
    2:  // Filename:     Math.c
    3:  // Description:
    4:  //  The math library containing Q Notation and Square Root formulas.  
    5:  //
    6:  // Author: Danny Sok
    7:  // Date:   14-11-2011
    8:  // Date LM: 16-11-2011
    9:  
   10:  #include "types.h"
   11:  #include "Math.h"
   12:  
   13:  
   14:  // *8 ~= << 3
   15:  // /8 ~= >> 3
   16:  /* 
   17:      5/4095 = 0.00122
   18:      122mv	1	122
   19:  		5000
   20:  
   21:      5000*N/4095
   22:      61*N+25/50             */
   23:  
   24:  
   25:  // ----------------------------------------
   26:  // Math_ToQN
   27:  // 
   28:  // Converts the given number to Q Notation based on a base given
   29:  // Input:
   30:  //  number is the number to use for Q Notation conversion
   31:  //  base is the n in mQn.
   32:  // Output:
   33:  //  The QNotated form of the number
   34:  // Conditions:
   35:  //  none
   36:  INT32 Math_ToQN(const UINT32 number, const UINT8 base)
   37:  {
*** EVALUATION ***

Function: Math_ToQN
Source  : F:\Dropbox\S11\Embedded Software\Assignments\demdanruto\Project\Sources\Math.c
Options : -CPUHCS12 -D__NO_FLOAT__ -Env"GENPATH=F:\Dropbox\S11\Embedded Software\Assignments\demdanruto\Project;F:\Dropbox\S11\Embedded Software\Assignments\demdanruto\Project\bin;F:\Dropbox\S11\Embedded Software\Assignments\demdanruto\Project\prm;F:\Dropbox\S11\Embedded Software\Assignments\demdanruto\Project\cmd;F:\Dropbox\S11\Embedded Software\Assignments\demdanruto\Project\Sources;C:\Program Files (x86)\Freescale\CWS12v5.1\lib\HC12c\lib;C:\Program Files (x86)\Freescale\CWS12v5.1\lib\HC12c\src;C:\Program Files (x86)\Freescale\CWS12v5.1\lib\HC12c\include" -Env"LIBPATH=C:\Program Files (x86)\Freescale\CWS12v5.1\lib\HC12c\include" -Env"OBJPATH=F:\Dropbox\S11\Embedded Software\Assignments\demdanruto\Project\bin" -Env"TEXTPATH=F:\Dropbox\S11\Embedded Software\Assignments\demdanruto\Project\bin" -Lasm=%n.lst -Ms -ObjN="F:\Dropbox\S11\Embedded Software\Assignments\demdanruto\Project\Project_Data\ModCon_Board\ObjectCode\Math.c.o" -WmsgSd1106 -WmsgSd5703

   38:    return number << base;
  0000 ed84         [3]     LDY   4,SP
  0002 ee82         [3]     LDX   2,SP
  0004 160000       [4]     JSR   _LSHL
   39:  }
  0007 3d           [5]     RTS   
   40:  
   41:  // ----------------------------------------
   42:  // Math_FromQN
   43:  // 
   44:  // Determines the total energy usage
   45:  // Input:
   46:  //  number is the number in Q Notation form
   47:  //  side is the side of the Q Notation where m is on the left, and n is on the right. (mQn)
   48:  // Output:
   49:  //  The number on the side. Useful for display on the LCD.
   50:  // Conditions:
   51:  //  none
   52:  INT16 Math_FromQN(UINT32 const number, const TQNotationSide side, const UINT8 base)
   53:  {
*** EVALUATION ***

Function: Math_FromQN
Source  : F:\Dropbox\S11\Embedded Software\Assignments\demdanruto\Project\Sources\Math.c
Options : -CPUHCS12 -D__NO_FLOAT__ -Env"GENPATH=F:\Dropbox\S11\Embedded Software\Assignments\demdanruto\Project;F:\Dropbox\S11\Embedded Software\Assignments\demdanruto\Project\bin;F:\Dropbox\S11\Embedded Software\Assignments\demdanruto\Project\prm;F:\Dropbox\S11\Embedded Software\Assignments\demdanruto\Project\cmd;F:\Dropbox\S11\Embedded Software\Assignments\demdanruto\Project\Sources;C:\Program Files (x86)\Freescale\CWS12v5.1\lib\HC12c\lib;C:\Program Files (x86)\Freescale\CWS12v5.1\lib\HC12c\src;C:\Program Files (x86)\Freescale\CWS12v5.1\lib\HC12c\include" -Env"LIBPATH=C:\Program Files (x86)\Freescale\CWS12v5.1\lib\HC12c\include" -Env"OBJPATH=F:\Dropbox\S11\Embedded Software\Assignments\demdanruto\Project\bin" -Env"TEXTPATH=F:\Dropbox\S11\Embedded Software\Assignments\demdanruto\Project\bin" -Lasm=%n.lst -Ms -ObjN="F:\Dropbox\S11\Embedded Software\Assignments\demdanruto\Project\Project_Data\ModCon_Board\ObjectCode\Math.c.o" -WmsgSd1106 -WmsgSd5703

  0000 1b9c         [2]     LEAS  -4,SP
   54:    INT32 tempNumber;
   55:    INT8 hundredThousand, tenThousand, thousand;
   56:    hundredThousand, tenThousand, thousand = 0;
   57:    tempNumber = (INT32)(number >> base);
  0002 ed8a         [3]     LDY   10,SP
  0004 ee88         [3]     LDX   8,SP
  0006 160000       [4]     JSR   _LSHRU
  0009 6c82         [2]     STD   2,SP
  000b 6e80         [2]     STX   0,SP
   58:    
   59:    switch(side)
  000d ec86         [3]     LDD   6,SP
  000f 2705         [3/1]   BEQ   *+7 ;abs = 0016
  0011 04040e       [3]     DBEQ  D,*+17 ;abs = 0022
  0014 2013         [3]     BRA   *+21 ;abs = 0029
   60:    {
   61:      case qLeft:
   62:        return (INT16) (tempNumber / 1000);   // Change base back to 2
  0016 cc03e8       [2]     LDD   #1000
  0019 3b           [2]     PSHD  
  001a 35           [2]     PSHY  
  001b ec86         [3]     LDD   6,SP
  001d 160000       [4]     JSR   _LDIVS
  0020 2007         [3]     BRA   *+9 ;abs = 0029
   63:      break;
   64:      case qRight:
   65:        /*if (tempNumber >= 100000)
   66:        {
   67:          hundredThousand = (UINT8)(number / 1000);
   68:          tempNumber -= (hundredThousand * 1000);  
   69:        }
   70:        if (tempNumber >= 10000)
   71:        {
   72:          tenThousand = (UINT8)(tempNumber / 1000);
   73:          tempNumber -= (tenThousand * 1000);
   74:        }
   75:        if (tempNumber >= 1000)
   76:        {
   77:          thousand = (UINT8)(tempNumber / 1000);
   78:          tempNumber -= (thousand * 1000);
   79:        }*/
   80:        return (INT16)tempNumber % 1000;              // Only take the last 3 digits as the base is 1000
  0022 ec82         [3]     LDD   2,SP
  0024 ce03e8       [2]     LDX   #1000
  0027 1815         [12]    IDIVS 
   81:      break;
   82:      
   83:    }
   84:  }
  0029 1b84         [2]     LEAS  4,SP
  002b 3d           [5]     RTS   
   85:  
   86:  INT16 Math_ConvertADCValue(const INT32 number)
   87:  {
*** EVALUATION ***

Function: Math_ConvertADCValue
Source  : F:\Dropbox\S11\Embedded Software\Assignments\demdanruto\Project\Sources\Math.c
Options : -CPUHCS12 -D__NO_FLOAT__ -Env"GENPATH=F:\Dropbox\S11\Embedded Software\Assignments\demdanruto\Project;F:\Dropbox\S11\Embedded Software\Assignments\demdanruto\Project\bin;F:\Dropbox\S11\Embedded Software\Assignments\demdanruto\Project\prm;F:\Dropbox\S11\Embedded Software\Assignments\demdanruto\Project\cmd;F:\Dropbox\S11\Embedded Software\Assignments\demdanruto\Project\Sources;C:\Program Files (x86)\Freescale\CWS12v5.1\lib\HC12c\lib;C:\Program Files (x86)\Freescale\CWS12v5.1\lib\HC12c\src;C:\Program Files (x86)\Freescale\CWS12v5.1\lib\HC12c\include" -Env"LIBPATH=C:\Program Files (x86)\Freescale\CWS12v5.1\lib\HC12c\include" -Env"OBJPATH=F:\Dropbox\S11\Embedded Software\Assignments\demdanruto\Project\bin" -Env"TEXTPATH=F:\Dropbox\S11\Embedded Software\Assignments\demdanruto\Project\bin" -Lasm=%n.lst -Ms -ObjN="F:\Dropbox\S11\Embedded Software\Assignments\demdanruto\Project\Project_Data\ModCon_Board\ObjectCode\Math.c.o" -WmsgSd1106 -WmsgSd5703

   88:    return (INT16)Math_ToQN(( (61 * number) + 25 ) / 50, DefaultBase);
  0000 cd003d       [2]     LDY   #61
  0003 160000       [4]     JSR   _LMULS16x32
  0006 c30019       [2]     ADDD  #25
  0009 b7c5         [1]     EXG   D,X
  000b c900         [1]     ADCB  #0
  000d 8900         [1]     ADCA  #0
  000f cd0032       [2]     LDY   #50
  0012 35           [2]     PSHY  
  0013 b746         [1]     TFR   D,Y
  0015 c7           [1]     CLRB  
  0016 87           [1]     CLRA  
  0017 3b           [2]     PSHD  
  0018 b754         [1]     TFR   X,D
  001a b765         [1]     TFR   Y,X
  001c 160000       [4]     JSR   _LDIVS
  001f 3b           [2]     PSHD  
  0020 34           [2]     PSHX  
  0021 c603         [1]     LDAB  #3
  0023 0700         [4]     BSR   Math_ToQN
  0025 1b84         [2]     LEAS  4,SP
   89:  }
  0027 3d           [5]     RTS   
   90:  
   91:  
   92:  // ----------------------------------------
   93:  // Math_FindPower
   94:  // 
   95:  // Determines the power usage
   96:  // Input:
   97:  //  voltage is the analog representation of voltage e.g. 5 Volts
   98:  //  current is the analog representation of current e.g. 1 Amp
   99:  // Output:
  100:  //  The instantaneous power
  101:  // Conditions:
  102:  //  none
  103:  INT16 Math_FindPower(const INT16 voltage, const INT16 current)
  104:  {
*** EVALUATION ***

Function: Math_FindPower
Source  : F:\Dropbox\S11\Embedded Software\Assignments\demdanruto\Project\Sources\Math.c
Options : -CPUHCS12 -D__NO_FLOAT__ -Env"GENPATH=F:\Dropbox\S11\Embedded Software\Assignments\demdanruto\Project;F:\Dropbox\S11\Embedded Software\Assignments\demdanruto\Project\bin;F:\Dropbox\S11\Embedded Software\Assignments\demdanruto\Project\prm;F:\Dropbox\S11\Embedded Software\Assignments\demdanruto\Project\cmd;F:\Dropbox\S11\Embedded Software\Assignments\demdanruto\Project\Sources;C:\Program Files (x86)\Freescale\CWS12v5.1\lib\HC12c\lib;C:\Program Files (x86)\Freescale\CWS12v5.1\lib\HC12c\src;C:\Program Files (x86)\Freescale\CWS12v5.1\lib\HC12c\include" -Env"LIBPATH=C:\Program Files (x86)\Freescale\CWS12v5.1\lib\HC12c\include" -Env"OBJPATH=F:\Dropbox\S11\Embedded Software\Assignments\demdanruto\Project\bin" -Env"TEXTPATH=F:\Dropbox\S11\Embedded Software\Assignments\demdanruto\Project\bin" -Lasm=%n.lst -Ms -ObjN="F:\Dropbox\S11\Embedded Software\Assignments\demdanruto\Project\Project_Data\ModCon_Board\ObjectCode\Math.c.o" -WmsgSd1106 -WmsgSd5703

  0000 3b           [2]     PSHD  
  105:    return (INT16)voltage * current;
  0001 ec84         [3]     LDD   4,SP
  0003 ed80         [3]     LDY   0,SP
  0005 13           [3]     EMUL  
  106:  }
  0006 30           [3]     PULX  
  0007 3d           [5]     RTS   
  107:  
  108:  // ----------------------------------------
  109:  // Math_FindEnergy
  110:  // 
  111:  // Determines the total energy usage
  112:  // Input:
  113:  //  DEM_AvePower_Array is the array for the 16 samples of power
  114:  // Output:
  115:  //  none
  116:  // Conditions:
  117:  //  none
  118:  void Math_FindEnergy(const INT16 DEM_AvePower_Array[])
  119:  {
*** EVALUATION ***

Function: Math_FindEnergy
Source  : F:\Dropbox\S11\Embedded Software\Assignments\demdanruto\Project\Sources\Math.c
Options : -CPUHCS12 -D__NO_FLOAT__ -Env"GENPATH=F:\Dropbox\S11\Embedded Software\Assignments\demdanruto\Project;F:\Dropbox\S11\Embedded Software\Assignments\demdanruto\Project\bin;F:\Dropbox\S11\Embedded Software\Assignments\demdanruto\Project\prm;F:\Dropbox\S11\Embedded Software\Assignments\demdanruto\Project\cmd;F:\Dropbox\S11\Embedded Software\Assignments\demdanruto\Project\Sources;C:\Program Files (x86)\Freescale\CWS12v5.1\lib\HC12c\lib;C:\Program Files (x86)\Freescale\CWS12v5.1\lib\HC12c\src;C:\Program Files (x86)\Freescale\CWS12v5.1\lib\HC12c\include" -Env"LIBPATH=C:\Program Files (x86)\Freescale\CWS12v5.1\lib\HC12c\include" -Env"OBJPATH=F:\Dropbox\S11\Embedded Software\Assignments\demdanruto\Project\bin" -Env"TEXTPATH=F:\Dropbox\S11\Embedded Software\Assignments\demdanruto\Project\bin" -Lasm=%n.lst -Ms -ObjN="F:\Dropbox\S11\Embedded Software\Assignments\demdanruto\Project\Project_Data\ModCon_Board\ObjectCode\Math.c.o" -WmsgSd1106 -WmsgSd5703

  0000 3b           [2]     PSHD  
  120:    // 16 Samples per Period/Cycle.
  121:    // Sum of PkTs between k=0 and n
  122:    // n = 15 then.
  123:    // 1 cycle is approx 20 milliseconds
  124:    // so 20/16 = 1.25, so sample approx every 1ms
  125:    UINT8 i;
  126:    
  127:    for (i = 0; i < DEM_PWRSIZE; i++)
  0001 c7           [1]     CLRB  
  128:    {
  129:      DEM_Total_Energy.l += DEM_AvePower_Array[i];
  0002 87           [1]     CLRA  
  0003 37           [2]     PSHB  
  0004 59           [1]     LSLD  
  0005 e381         [3]     ADDD  1,SP
  0007 b745         [1]     TFR   D,X
  0009 ec00         [3]     LDD   0,X
  000b 160000       [4]     JSR   _ILSEXT
  000e f30000       [3]     ADDD  DEM_Total_Energy:2
  0011 7c0000       [3]     STD   DEM_Total_Energy:2
  0014 b754         [1]     TFR   X,D
  0016 f90000       [3]     ADCB  DEM_Total_Energy:1
  0019 b90000       [3]     ADCA  DEM_Total_Energy
  001c 7c0000       [3]     STD   DEM_Total_Energy
  001f 33           [3]     PULB  
  0020 52           [1]     INCB  
  0021 c110         [1]     CMPB  #16
  0023 25dd         [3/1]   BCS   *-33 ;abs = 0002
  130:    }
  131:    DEM_Total_Energy.l = (DEM_Total_Energy.l >> 3) * (Clock_RunningTimeInHours() << 3) ;
  0025 fd0000       [3]     LDY   DEM_Total_Energy:2
  0028 fe0000       [3]     LDX   DEM_Total_Energy
  002b c603         [1]     LDAB  #3
  002d 160000       [4]     JSR   _LSHRU
  0030 3b           [2]     PSHD  
  0031 34           [2]     PSHX  
  0032 160000       [4]     JSR   Clock_RunningTimeInHours
  0035 59           [1]     LSLD  
  0036 59           [1]     LSLD  
  0037 59           [1]     LSLD  
  0038 b746         [1]     TFR   D,Y
  003a ec82         [3]     LDD   2,SP
  003c 30           [3]     PULX  
  003d 160000       [4]     JSR   _LMULU16x32
  0040 7c0000       [3]     STD   DEM_Total_Energy:2
  0043 7e0000       [3]     STX   DEM_Total_Energy
  0046 1b84         [2]     LEAS  4,SP
  132:  }
  0048 3d           [5]     RTS   
  133:  
  134:  // ----------------------------------------
  135:  // Math_FindCost
  136:  // 
  137:  // Determines the total cost of the user
  138:  // Input:
  139:  //  none
  140:  // Output:
  141:  //  none
  142:  // Conditions:
  143:  //  none
  144:  void Math_FindCost(void)
  145:  {
*** EVALUATION ***

Function: Math_FindCost
Source  : F:\Dropbox\S11\Embedded Software\Assignments\demdanruto\Project\Sources\Math.c
Options : -CPUHCS12 -D__NO_FLOAT__ -Env"GENPATH=F:\Dropbox\S11\Embedded Software\Assignments\demdanruto\Project;F:\Dropbox\S11\Embedded Software\Assignments\demdanruto\Project\bin;F:\Dropbox\S11\Embedded Software\Assignments\demdanruto\Project\prm;F:\Dropbox\S11\Embedded Software\Assignments\demdanruto\Project\cmd;F:\Dropbox\S11\Embedded Software\Assignments\demdanruto\Project\Sources;C:\Program Files (x86)\Freescale\CWS12v5.1\lib\HC12c\lib;C:\Program Files (x86)\Freescale\CWS12v5.1\lib\HC12c\src;C:\Program Files (x86)\Freescale\CWS12v5.1\lib\HC12c\include" -Env"LIBPATH=C:\Program Files (x86)\Freescale\CWS12v5.1\lib\HC12c\include" -Env"OBJPATH=F:\Dropbox\S11\Embedded Software\Assignments\demdanruto\Project\bin" -Env"TEXTPATH=F:\Dropbox\S11\Embedded Software\Assignments\demdanruto\Project\bin" -Lasm=%n.lst -Ms -ObjN="F:\Dropbox\S11\Embedded Software\Assignments\demdanruto\Project\Project_Data\ModCon_Board\ObjectCode\Math.c.o" -WmsgSd1106 -WmsgSd5703

  146:    // Energy in kWh * Tarrif
  147:    // Energy is in base 6, so upscale Tarrif to base 6 first.
  148:    DEM_Total_Cost += (UINT16) (DEM_Total_Energy.l * (DEM_Tarrif << 3));
  0000 fc0000       [3]     LDD   DEM_Tarrif
  0003 59           [1]     LSLD  
  0004 59           [1]     LSLD  
  0005 59           [1]     LSLD  
  0006 b746         [1]     TFR   D,Y
  0008 fc0000       [3]     LDD   DEM_Total_Energy:2
  000b 13           [3]     EMUL  
  000c f30000       [3]     ADDD  DEM_Total_Cost:2
  000f 7c0000       [3]     STD   DEM_Total_Cost:2
  0012 cc0000       [2]     LDD   #0
  0015 f90000       [3]     ADCB  DEM_Total_Cost:1
  0018 b90000       [3]     ADCA  DEM_Total_Cost
  149:    
  150:    // Then normalise back down to base 3
  151:    DEM_Total_Cost = DEM_Total_Cost >> 3;
  001b fd0000       [3]     LDY   DEM_Total_Cost:2
  001e b745         [1]     TFR   D,X
  0020 c603         [1]     LDAB  #3
  0022 160000       [4]     JSR   _LSHRU
  0025 7c0000       [3]     STD   DEM_Total_Cost:2
  0028 7e0000       [3]     STX   DEM_Total_Cost
  152:  }
  002b 3d           [5]     RTS   
  153:  
  154:  // ----------------------------------------
  155:  // Math_SQRT
  156:  // 
  157:  // Determines the square roots by using an initial guess
  158:  // Input:
  159:  //  number is the number to find the root of
  160:  //  guess is the initial estimation of the root
  161:  // Output:
  162:  //  none
  163:  // Conditions:
  164:  //  none
  165:  UINT16 Math_SQRT(const INT16 number, const INT16 guess)
  166:  {
*** EVALUATION ***

Function: Math_SQRT
Source  : F:\Dropbox\S11\Embedded Software\Assignments\demdanruto\Project\Sources\Math.c
Options : -CPUHCS12 -D__NO_FLOAT__ -Env"GENPATH=F:\Dropbox\S11\Embedded Software\Assignments\demdanruto\Project;F:\Dropbox\S11\Embedded Software\Assignments\demdanruto\Project\bin;F:\Dropbox\S11\Embedded Software\Assignments\demdanruto\Project\prm;F:\Dropbox\S11\Embedded Software\Assignments\demdanruto\Project\cmd;F:\Dropbox\S11\Embedded Software\Assignments\demdanruto\Project\Sources;C:\Program Files (x86)\Freescale\CWS12v5.1\lib\HC12c\lib;C:\Program Files (x86)\Freescale\CWS12v5.1\lib\HC12c\src;C:\Program Files (x86)\Freescale\CWS12v5.1\lib\HC12c\include" -Env"LIBPATH=C:\Program Files (x86)\Freescale\CWS12v5.1\lib\HC12c\include" -Env"OBJPATH=F:\Dropbox\S11\Embedded Software\Assignments\demdanruto\Project\bin" -Env"TEXTPATH=F:\Dropbox\S11\Embedded Software\Assignments\demdanruto\Project\bin" -Lasm=%n.lst -Ms -ObjN="F:\Dropbox\S11\Embedded Software\Assignments\demdanruto\Project\Project_Data\ModCon_Board\ObjectCode\Math.c.o" -WmsgSd1106 -WmsgSd5703

  0000 3b           [2]     PSHD  
  167:    return (UINT16) ( ((number + guess) + guess) >> 1);
  0001 ec84         [3]     LDD   4,SP
  0003 e380         [3]     ADDD  0,SP
  0005 e380         [3]     ADDD  0,SP
  0007 47           [1]     ASRA  
  0008 56           [1]     RORB  
  168:  }
  0009 30           [3]     PULX  
  000a 3d           [5]     RTS   
  169:  
  170:  void Math_FindFrequency(void)
  171:  {
*** EVALUATION ***

Function: Math_FindFrequency
Source  : F:\Dropbox\S11\Embedded Software\Assignments\demdanruto\Project\Sources\Math.c
Options : -CPUHCS12 -D__NO_FLOAT__ -Env"GENPATH=F:\Dropbox\S11\Embedded Software\Assignments\demdanruto\Project;F:\Dropbox\S11\Embedded Software\Assignments\demdanruto\Project\bin;F:\Dropbox\S11\Embedded Software\Assignments\demdanruto\Project\prm;F:\Dropbox\S11\Embedded Software\Assignments\demdanruto\Project\cmd;F:\Dropbox\S11\Embedded Software\Assignments\demdanruto\Project\Sources;C:\Program Files (x86)\Freescale\CWS12v5.1\lib\HC12c\lib;C:\Program Files (x86)\Freescale\CWS12v5.1\lib\HC12c\src;C:\Program Files (x86)\Freescale\CWS12v5.1\lib\HC12c\include" -Env"LIBPATH=C:\Program Files (x86)\Freescale\CWS12v5.1\lib\HC12c\include" -Env"OBJPATH=F:\Dropbox\S11\Embedded Software\Assignments\demdanruto\Project\bin" -Env"TEXTPATH=F:\Dropbox\S11\Embedded Software\Assignments\demdanruto\Project\bin" -Lasm=%n.lst -Ms -ObjN="F:\Dropbox\S11\Embedded Software\Assignments\demdanruto\Project\Project_Data\ModCon_Board\ObjectCode\Math.c.o" -WmsgSd1106 -WmsgSd5703

  172:    // F = 1/T
  173:    DEM_Frequency.l = 0;
  0000 c7           [1]     CLRB  
  0001 87           [1]     CLRA  
  0002 7c0000       [3]     STD   DEM_Frequency
  174:      
  175:  }
  0005 3d           [5]     RTS   
  176:  
  177:  INT16 Math_FindRMS(const INT16 number)
  178:  {
*** EVALUATION ***

Function: Math_FindRMS
Source  : F:\Dropbox\S11\Embedded Software\Assignments\demdanruto\Project\Sources\Math.c
Options : -CPUHCS12 -D__NO_FLOAT__ -Env"GENPATH=F:\Dropbox\S11\Embedded Software\Assignments\demdanruto\Project;F:\Dropbox\S11\Embedded Software\Assignments\demdanruto\Project\bin;F:\Dropbox\S11\Embedded Software\Assignments\demdanruto\Project\prm;F:\Dropbox\S11\Embedded Software\Assignments\demdanruto\Project\cmd;F:\Dropbox\S11\Embedded Software\Assignments\demdanruto\Project\Sources;C:\Program Files (x86)\Freescale\CWS12v5.1\lib\HC12c\lib;C:\Program Files (x86)\Freescale\CWS12v5.1\lib\HC12c\src;C:\Program Files (x86)\Freescale\CWS12v5.1\lib\HC12c\include" -Env"LIBPATH=C:\Program Files (x86)\Freescale\CWS12v5.1\lib\HC12c\include" -Env"OBJPATH=F:\Dropbox\S11\Embedded Software\Assignments\demdanruto\Project\bin" -Env"TEXTPATH=F:\Dropbox\S11\Embedded Software\Assignments\demdanruto\Project\bin" -Lasm=%n.lst -Ms -ObjN="F:\Dropbox\S11\Embedded Software\Assignments\demdanruto\Project\Project_Data\ModCon_Board\ObjectCode\Math.c.o" -WmsgSd1106 -WmsgSd5703

  0000 3b           [2]     PSHD  
  179:    return number / Math_SQRT(2, 1);
  0001 c602         [1]     LDAB  #2
  0003 87           [1]     CLRA  
  0004 3b           [2]     PSHD  
  0005 57           [1]     ASRB  
  0006 0700         [4]     BSR   Math_SQRT
  0008 b745         [1]     TFR   D,X
  000a eca1         [3]     LDD   2,+SP
  000c 1810         [12]    IDIV  
  000e b754         [1]     TFR   X,D
  180:  }
  0010 30           [3]     PULX  
  0011 3d           [5]     RTS   
